Archive member included to satisfy reference by file (symbol)

/usr/local/arm-cortex_a8-linux-gnueabi/lib/gcc/arm-cortex_a8-linux-gnueabi/4.9.4/libgcc.a(_udivsi3.o)
                              arch/arm/cpu/armv7/built-in.o (__aeabi_uidiv)
/usr/local/arm-cortex_a8-linux-gnueabi/lib/gcc/arm-cortex_a8-linux-gnueabi/4.9.4/libgcc.a(_divsi3.o)
                              common/built-in.o (__aeabi_idiv)
/usr/local/arm-cortex_a8-linux-gnueabi/lib/gcc/arm-cortex_a8-linux-gnueabi/4.9.4/libgcc.a(_lshrdi3.o)
                              common/built-in.o (__aeabi_llsr)
/usr/local/arm-cortex_a8-linux-gnueabi/lib/gcc/arm-cortex_a8-linux-gnueabi/4.9.4/libgcc.a(_ashrdi3.o)
                              common/built-in.o (__aeabi_lasr)
/usr/local/arm-cortex_a8-linux-gnueabi/lib/gcc/arm-cortex_a8-linux-gnueabi/4.9.4/libgcc.a(_ashldi3.o)
                              drivers/mtd/onenand/built-in.o (__aeabi_llsl)
/usr/local/arm-cortex_a8-linux-gnueabi/lib/gcc/arm-cortex_a8-linux-gnueabi/4.9.4/libgcc.a(_dvmd_lnx.o)
                              /usr/local/arm-cortex_a8-linux-gnueabi/lib/gcc/arm-cortex_a8-linux-gnueabi/4.9.4/libgcc.a(_udivsi3.o) (__aeabi_idiv0)

Discarded input sections

 .data          0x0000000000000000        0x0 arch/arm/cpu/armv7/start.o
 .bss           0x0000000000000000        0x0 arch/arm/cpu/armv7/start.o
 .text          0x0000000000000000        0x0 arch/arm/cpu/armv7/built-in.o
 .text.__v7_outer_cache_enable
                0x0000000000000000        0x4 arch/arm/cpu/armv7/built-in.o
 .text.__v7_outer_cache_disable
                0x0000000000000000        0x4 arch/arm/cpu/armv7/built-in.o
 .text.mmu_page_table_flush
                0x0000000000000000       0x24 arch/arm/cpu/armv7/built-in.o
 .text.__v7_outer_cache_inval_range
                0x0000000000000000        0x4 arch/arm/cpu/armv7/built-in.o
 .text.invalidate_dcache_range
                0x0000000000000000       0xac arch/arm/cpu/armv7/built-in.o
 .text.sdelay   0x0000000000000000        0xc arch/arm/cpu/armv7/built-in.o
 .text.sr32     0x0000000000000000       0x20 arch/arm/cpu/armv7/built-in.o
 .text.wait_on_value
                0x0000000000000000       0x34 arch/arm/cpu/armv7/built-in.o
 .text.get_device_type
                0x0000000000000000       0x10 arch/arm/cpu/armv7/built-in.o
 .text.timer_get_us
                0x0000000000000000       0x54 arch/arm/cpu/armv7/built-in.o
 .text.pwm_disable
                0x0000000000000000       0x50 arch/arm/cpu/armv7/built-in.o
 .rodata.__func__.6348
                0x0000000000000000       0x16 arch/arm/cpu/armv7/built-in.o
 .data          0x0000000000000000        0x0 arch/arm/cpu/armv7/built-in.o
 .bss           0x0000000000000000        0x0 arch/arm/cpu/armv7/built-in.o
 .bss.base_time_us.6317
                0x0000000000000000        0x4 arch/arm/cpu/armv7/built-in.o
 .text.set_mmc_clk
                0x0000000000000000        0x4 arch/arm/cpu/armv7/s5pc1xx/built-in.o
 .data          0x0000000000000000        0x0 arch/arm/cpu/armv7/s5pc1xx/built-in.o
 .bss           0x0000000000000000        0x0 arch/arm/cpu/armv7/s5pc1xx/built-in.o
 .text.__arch_cpu_init
                0x0000000000000000        0x8 arch/arm/lib/built-in.o
 .text.__red_led_off
                0x0000000000000000        0x4 arch/arm/lib/built-in.o
 .text.__green_led_on
                0x0000000000000000        0x4 arch/arm/lib/built-in.o
 .text.__green_led_off
                0x0000000000000000        0x4 arch/arm/lib/built-in.o
 .text.__yellow_led_on
                0x0000000000000000        0x4 arch/arm/lib/built-in.o
 .text.__yellow_led_off
                0x0000000000000000        0x4 arch/arm/lib/built-in.o
 .text.__blue_led_on
                0x0000000000000000        0x4 arch/arm/lib/built-in.o
 .text.__blue_led_off
                0x0000000000000000        0x4 arch/arm/lib/built-in.o
 .text.__dram_init_banksize
                0x0000000000000000       0x1c arch/arm/lib/built-in.o
 .text.__flush_cache
                0x0000000000000000        0x4 arch/arm/lib/built-in.o
 .text.__flush_dcache_all
                0x0000000000000000        0xc arch/arm/lib/built-in.o
 .text.__arm_init_before_mmu
                0x0000000000000000        0x4 arch/arm/lib/built-in.o
 .text.__mmu_page_table_flush
                0x0000000000000000        0x4 arch/arm/lib/built-in.o
 .text.mmu_set_region_dcache_behaviour
                0x0000000000000000       0x50 arch/arm/lib/built-in.o
 .data          0x0000000000000000        0x0 arch/arm/lib/built-in.o
 .__end         0x0000000000000000        0x0 arch/arm/lib/built-in.o
 .bss           0x0000000000000000        0x0 arch/arm/lib/built-in.o
 .text.delay.constprop.0
                0x0000000000000000       0x50 board/samsung/smdkv210/built-in.o
 .text.ledm_on  0x0000000000000000       0x38 board/samsung/smdkv210/built-in.o
 .text.ledm_off
                0x0000000000000000       0x38 board/samsung/smdkv210/built-in.o
 .text.ledm_inv
                0x0000000000000000       0x38 board/samsung/smdkv210/built-in.o
 .text.ledm_init
                0x0000000000000000       0x28 board/samsung/smdkv210/built-in.o
 .data          0x0000000000000000        0x0 board/samsung/smdkv210/built-in.o
 .bss           0x0000000000000000        0x0 board/samsung/smdkv210/built-in.o
 .text          0x0000000000000000        0x0 common/built-in.o
 .text.parse_line
                0x0000000000000000       0x88 common/built-in.o
 .text.cmd_process_error
                0x0000000000000000       0x34 common/built-in.o
 .text.hash_block
                0x0000000000000000       0x74 common/built-in.o
 .text.unset_local_var
                0x0000000000000000       0xa0 common/built-in.o
 .text.env_flags_parse_varaccess_from_binflags
                0x0000000000000000       0x28 common/built-in.o
 .text.invalidate_icache_all
                0x0000000000000000        0xc common/built-in.o
 .text.flush_dcache_all
                0x0000000000000000        0xc common/built-in.o
 .text.__splash_screen_prepare
                0x0000000000000000        0x8 common/built-in.o
 .text.getenv_hex
                0x0000000000000000       0x3c common/built-in.o
 .text.serial_printf
                0x0000000000000000       0x40 common/built-in.o
 .text.fputc    0x0000000000000000       0x20 common/built-in.o
 .text.fputs    0x0000000000000000       0x20 common/built-in.o
 .text.fprintf  0x0000000000000000       0x48 common/built-in.o
 .text.disable_ctrlc
                0x0000000000000000       0x18 common/built-in.o
 .text.dbg      0x0000000000000000        0xc common/built-in.o
 .text.valloc   0x0000000000000000        0xc common/built-in.o
 .text.pvalloc  0x0000000000000000       0x18 common/built-in.o
 .text.cfree    0x0000000000000000        0x4 common/built-in.o
 .text.malloc_usable_size
                0x0000000000000000       0x3c common/built-in.o
 .text.mallopt  0x0000000000000000       0x68 common/built-in.o
 .text.getenv_bootm_mapsize
                0x0000000000000000       0x30 common/built-in.o
 .text.get_table_entry_id
                0x0000000000000000       0x4c common/built-in.o
 .text.genimg_get_os_id
                0x0000000000000000       0x18 common/built-in.o
 .text.genimg_get_arch_id
                0x0000000000000000       0x18 common/built-in.o
 .text.genimg_get_type_id
                0x0000000000000000       0x18 common/built-in.o
 .text.genimg_get_comp_id
                0x0000000000000000       0x18 common/built-in.o
 .text.genimg_has_config
                0x0000000000000000        0x8 common/built-in.o
 .text.image_setup_linux
                0x0000000000000000       0x30 common/built-in.o
 .data          0x0000000000000000        0x0 common/built-in.o
 .data.hash_algo
                0x0000000000000000       0x10 common/built-in.o
 .data.mmap_threshold
                0x0000000000000000        0x4 common/built-in.o
 .bss           0x0000000000000000        0x0 common/built-in.o
 .bss.n_mmaps_max
                0x0000000000000000        0x4 common/built-in.o
 .bss.save_addr
                0x0000000000000000        0x4 common/built-in.o
 .bss.save_size
                0x0000000000000000        0x4 common/built-in.o
 .text          0x0000000000000000        0x0 disk/built-in.o
 .text.get_dev  0x0000000000000000        0x8 disk/built-in.o
 .text.get_partition_info
                0x0000000000000000        0x8 disk/built-in.o
 .data          0x0000000000000000        0x0 disk/built-in.o
 .bss           0x0000000000000000        0x0 disk/built-in.o
 .text          0x0000000000000000        0x0 drivers/built-in.o
 .text.wdt_stop
                0x0000000000000000       0x44 drivers/built-in.o
 .text.wdt_start
                0x0000000000000000       0x60 drivers/built-in.o
 .data          0x0000000000000000        0x0 drivers/built-in.o
 .bss           0x0000000000000000        0x0 drivers/built-in.o
 .comment       0x0000000000000000       0xbc drivers/built-in.o
 .note.GNU-stack
                0x0000000000000000        0x0 drivers/built-in.o
 .ARM.attributes
                0x0000000000000000       0x2d drivers/built-in.o
 .debug_aranges
                0x0000000000000000       0x70 drivers/built-in.o
 .debug_info    0x0000000000000000      0xc38 drivers/built-in.o
 .debug_abbrev  0x0000000000000000      0x41a drivers/built-in.o
 .debug_line    0x0000000000000000      0x40f drivers/built-in.o
 .debug_frame   0x0000000000000000       0x3c drivers/built-in.o
 .debug_str     0x0000000000000000      0xd48 drivers/built-in.o
 .debug_loc     0x0000000000000000       0x6a drivers/built-in.o
 .debug_ranges  0x0000000000000000       0x18 drivers/built-in.o
 .text          0x0000000000000000        0x0 drivers/gpio/built-in.o
 .text.s5p_gpio_direction_input
                0x0000000000000000        0x8 drivers/gpio/built-in.o
 .text.s5p_gpio_set_value
                0x0000000000000000       0x20 drivers/gpio/built-in.o
 .text.s5p_gpio_direction_output
                0x0000000000000000       0x2c drivers/gpio/built-in.o
 .text.s5p_gpio_get_value
                0x0000000000000000       0x18 drivers/gpio/built-in.o
 .text.s5p_gpio_set_pull
                0x0000000000000000       0x24 drivers/gpio/built-in.o
 .text.s5p_gpio_set_drv
                0x0000000000000000       0x24 drivers/gpio/built-in.o
 .text.s5p_gpio_set_rate
                0x0000000000000000       0x28 drivers/gpio/built-in.o
 .text.s5p_gpio_get_bank
                0x0000000000000000       0x40 drivers/gpio/built-in.o
 .text.s5p_gpio_get_pin
                0x0000000000000000        0x8 drivers/gpio/built-in.o
 .text.gpio_request
                0x0000000000000000        0x8 drivers/gpio/built-in.o
 .text.gpio_free
                0x0000000000000000        0x8 drivers/gpio/built-in.o
 .text.gpio_direction_input
                0x0000000000000000       0x1c drivers/gpio/built-in.o
 .text.gpio_direction_output
                0x0000000000000000       0x24 drivers/gpio/built-in.o
 .text.gpio_get_value
                0x0000000000000000       0x28 drivers/gpio/built-in.o
 .text.gpio_set_value
                0x0000000000000000       0x24 drivers/gpio/built-in.o
 .data          0x0000000000000000        0x0 drivers/gpio/built-in.o
 .bss           0x0000000000000000        0x0 drivers/gpio/built-in.o
 .text          0x0000000000000000        0x0 drivers/input/built-in.o
 .text.input_tstc
                0x0000000000000000       0x48 drivers/input/built-in.o
 .text.input_getc
                0x0000000000000000       0x58 drivers/input/built-in.o
 .text.input_send_keycodes
                0x0000000000000000      0x3b8 drivers/input/built-in.o
 .text.input_add_table
                0x0000000000000000       0x40 drivers/input/built-in.o
 .text.input_set_delays
                0x0000000000000000        0xc drivers/input/built-in.o
 .text.input_init
                0x0000000000000000       0xdc drivers/input/built-in.o
 .text.input_stdio_register
                0x0000000000000000       0x54 drivers/input/built-in.o
 .rodata.kbd_to_ansi364
                0x0000000000000000       0x20 drivers/input/built-in.o
 .rodata.kbd_plain_xlate
                0x0000000000000000       0x63 drivers/input/built-in.o
 .rodata.str1.1
                0x0000000000000000       0x16 drivers/input/built-in.o
 .rodata.CSWTCH.28
                0x0000000000000000        0xd drivers/input/built-in.o
 .data          0x0000000000000000        0x0 drivers/input/built-in.o
 .data.kbd_ctrl_xlate
                0x0000000000000000       0x63 drivers/input/built-in.o
 .data.kbd_shift_xlate
                0x0000000000000000       0x63 drivers/input/built-in.o
 .bss           0x0000000000000000        0x0 drivers/input/built-in.o
 .comment       0x0000000000000000       0x2f drivers/input/built-in.o
 .note.GNU-stack
                0x0000000000000000        0x0 drivers/input/built-in.o
 .ARM.attributes
                0x0000000000000000       0x2d drivers/input/built-in.o
 .debug_aranges
                0x0000000000000000       0x50 drivers/input/built-in.o
 .debug_info    0x0000000000000000     0x110d drivers/input/built-in.o
 .debug_abbrev  0x0000000000000000      0x3e0 drivers/input/built-in.o
 .debug_line    0x0000000000000000      0x338 drivers/input/built-in.o
 .debug_frame   0x0000000000000000       0xd0 drivers/input/built-in.o
 .debug_str     0x0000000000000000      0x71a drivers/input/built-in.o
 .debug_loc     0x0000000000000000      0xb4e drivers/input/built-in.o
 .debug_ranges  0x0000000000000000      0x198 drivers/input/built-in.o
 .text          0x0000000000000000        0x0 drivers/mtd/built-in.o
 .text.del_mtd_device
                0x0000000000000000       0x54 drivers/mtd/built-in.o
 .text.get_mtd_device
                0x0000000000000000       0x74 drivers/mtd/built-in.o
 .text.put_mtd_device
                0x0000000000000000       0x2c drivers/mtd/built-in.o
 .text.mtd_panic_write
                0x0000000000000000       0xa0 drivers/mtd/built-in.o
 .text.mtd_get_fact_prot_info
                0x0000000000000000       0x28 drivers/mtd/built-in.o
 .text.mtd_read_fact_prot_reg
                0x0000000000000000       0x44 drivers/mtd/built-in.o
 .text.mtd_get_user_prot_info
                0x0000000000000000       0x28 drivers/mtd/built-in.o
 .text.mtd_read_user_prot_reg
                0x0000000000000000       0x44 drivers/mtd/built-in.o
 .text.mtd_write_user_prot_reg
                0x0000000000000000       0x44 drivers/mtd/built-in.o
 .text.mtd_lock_user_prot_reg
                0x0000000000000000       0x2c drivers/mtd/built-in.o
 .text.mtd_lock
                0x0000000000000000       0x74 drivers/mtd/built-in.o
 .text.mtd_unlock
                0x0000000000000000       0x74 drivers/mtd/built-in.o
 .text.part_write_oob
                0x0000000000000000       0xa0 drivers/mtd/built-in.o
 .text.part_sync
                0x0000000000000000       0x14 drivers/mtd/built-in.o
 .text.part_block_isbad
                0x0000000000000000       0x1c drivers/mtd/built-in.o
 .text.part_block_markbad
                0x0000000000000000       0x30 drivers/mtd/built-in.o
 .text.part_unlock
                0x0000000000000000       0x1c drivers/mtd/built-in.o
 .text.part_lock
                0x0000000000000000       0x1c drivers/mtd/built-in.o
 .text.part_get_fact_prot_info
                0x0000000000000000        0x8 drivers/mtd/built-in.o
 .text.part_get_user_prot_info
                0x0000000000000000        0x8 drivers/mtd/built-in.o
 .text.part_lock_user_prot_reg
                0x0000000000000000        0x8 drivers/mtd/built-in.o
 .text.part_write_user_prot_reg
                0x0000000000000000        0x8 drivers/mtd/built-in.o
 .text.part_read_fact_prot_reg
                0x0000000000000000        0x8 drivers/mtd/built-in.o
 .text.part_read_user_prot_reg
                0x0000000000000000        0x8 drivers/mtd/built-in.o
 .text.part_read_oob
                0x0000000000000000       0x94 drivers/mtd/built-in.o
 .text.part_write
                0x0000000000000000       0x1c drivers/mtd/built-in.o
 .text.part_read
                0x0000000000000000       0x74 drivers/mtd/built-in.o
 .text.del_mtd_partitions
                0x0000000000000000       0x8c drivers/mtd/built-in.o
 .text.add_mtd_partitions
                0x0000000000000000      0x620 drivers/mtd/built-in.o
 .rodata.__FUNCTION__.6801
                0x0000000000000000       0x12 drivers/mtd/built-in.o
 .data          0x0000000000000000        0x0 drivers/mtd/built-in.o
 .bss           0x0000000000000000        0x0 drivers/mtd/built-in.o
 .bss.mtd_partitions
                0x0000000000000000        0x8 drivers/mtd/built-in.o
 .text          0x0000000000000000        0x0 drivers/mtd/onenand/built-in.o
 .text.flexonenand_set_boundary
                0x0000000000000000      0x35c drivers/mtd/onenand/built-in.o
 .text.onenand_release
                0x0000000000000000        0x4 drivers/mtd/onenand/built-in.o
 .text.s5pc110_chip_probe
                0x0000000000000000        0x8 drivers/mtd/onenand/built-in.o
 .text.s5pc210_chip_probe
                0x0000000000000000        0x8 drivers/mtd/onenand/built-in.o
 .data          0x0000000000000000        0x0 drivers/mtd/onenand/built-in.o
 .bss           0x0000000000000000        0x0 drivers/mtd/onenand/built-in.o
 .text          0x0000000000000000        0x0 drivers/net/built-in.o
 .data          0x0000000000000000        0x0 drivers/net/built-in.o
 .bss           0x0000000000000000        0x0 drivers/net/built-in.o
 .text          0x0000000000000000        0x0 drivers/serial/built-in.o
 .text.serial_reinit_all
                0x0000000000000000       0x2c drivers/serial/built-in.o
 .text.default_serial_puts
                0x0000000000000000       0x30 drivers/serial/built-in.o
 .bss           0x0000000000000000        0x0 drivers/serial/built-in.o
 .text          0x0000000000000000        0x0 drivers/spi/built-in.o
 .text.spi_set_wordlen
                0x0000000000000000       0x30 drivers/spi/built-in.o
 .text.spi_do_alloc_slave
                0x0000000000000000       0x4c drivers/spi/built-in.o
 .rodata.str1.1
                0x0000000000000000       0x19 drivers/spi/built-in.o
 .data          0x0000000000000000        0x0 drivers/spi/built-in.o
 .bss           0x0000000000000000        0x0 drivers/spi/built-in.o
 .comment       0x0000000000000000       0x2f drivers/spi/built-in.o
 .note.GNU-stack
                0x0000000000000000        0x0 drivers/spi/built-in.o
 .ARM.attributes
                0x0000000000000000       0x2d drivers/spi/built-in.o
 .debug_aranges
                0x0000000000000000       0x28 drivers/spi/built-in.o
 .debug_info    0x0000000000000000      0x485 drivers/spi/built-in.o
 .debug_abbrev  0x0000000000000000      0x1a5 drivers/spi/built-in.o
 .debug_line    0x0000000000000000      0x169 drivers/spi/built-in.o
 .debug_frame   0x0000000000000000       0x48 drivers/spi/built-in.o
 .debug_str     0x0000000000000000      0x3d6 drivers/spi/built-in.o
 .debug_loc     0x0000000000000000      0x10f drivers/spi/built-in.o
 .debug_ranges  0x0000000000000000       0x18 drivers/spi/built-in.o
 .text          0x0000000000000000        0x0 fs/built-in.o
 .text.fs_write
                0x0000000000000000       0x78 fs/built-in.o
 .text.do_save  0x0000000000000000      0x128 fs/built-in.o
 .text.fat_register_device
                0x0000000000000000       0x88 fs/built-in.o
 .text.file_fat_read
                0x0000000000000000       0x14 fs/built-in.o
 .text.file_getfsname
                0x0000000000000000       0x14 fs/built-in.o
 .text.file_cd  0x0000000000000000      0x1bc fs/built-in.o
 .text.file_detectfs
                0x0000000000000000       0x40 fs/built-in.o
 .text.file_ls  0x0000000000000000       0x98 fs/built-in.o
 .text.file_read
                0x0000000000000000       0xa4 fs/built-in.o
 .rodata.filesystems
                0x0000000000000000       0x18 fs/built-in.o
 .data          0x0000000000000000        0x0 fs/built-in.o
 .data.file_cwd
                0x0000000000000000      0x200 fs/built-in.o
 .data.current_filesystem
                0x0000000000000000        0x4 fs/built-in.o
 .bss           0x0000000000000000        0x0 fs/built-in.o
 .text          0x0000000000000000        0x0 lib/built-in.o
 .text.inflateInit_
                0x0000000000000000       0x14 lib/built-in.o
 .text.crc7     0x0000000000000000       0x24 lib/built-in.o
 .text.crc8     0x0000000000000000       0x40 lib/built-in.o
 .text.initcall_run_list
                0x0000000000000000       0x2c lib/built-in.o
 .text.lmb_dump_all
                0x0000000000000000        0x4 lib/built-in.o
 .text.lmb_free
                0x0000000000000000      0x104 lib/built-in.o
 .text.lmb_is_reserved
                0x0000000000000000       0x5c lib/built-in.o
 .text.__arch_lmb_reserve
                0x0000000000000000        0x4 lib/built-in.o
 .text.ldiv     0x0000000000000000       0x50 lib/built-in.o
 .text.strcmp_compar
                0x0000000000000000        0xc lib/built-in.o
 .text.hmatch_r
                0x0000000000000000       0xa0 lib/built-in.o
 .text.display_options
                0x0000000000000000       0x20 lib/built-in.o
 .text.crc32_wd_buf
                0x0000000000000000       0x40 lib/built-in.o
 .text.strncasecmp
                0x0000000000000000       0x9c lib/built-in.o
 .text.strcasecmp
                0x0000000000000000        0x8 lib/built-in.o
 .text.strrchr  0x0000000000000000       0x3c lib/built-in.o
 .text.strspn   0x0000000000000000       0x3c lib/built-in.o
 .text.strtok   0x0000000000000000       0x88 lib/built-in.o
 .text.strsep   0x0000000000000000       0x38 lib/built-in.o
 .text.strswab  0x0000000000000000       0x48 lib/built-in.o
 .text.bcopy    0x0000000000000000       0x24 lib/built-in.o
 .text.memscan  0x0000000000000000       0x2c lib/built-in.o
 .text.memchr   0x0000000000000000       0x30 lib/built-in.o
 .text.memchr_inv
                0x0000000000000000      0x130 lib/built-in.o
 .text.tick_to_time
                0x0000000000000000       0x64 lib/built-in.o
 .text.get_ticks
                0x0000000000000000       0x40 lib/built-in.o
 .text.timer_init
                0x0000000000000000        0x8 lib/built-in.o
 .text.get_timer
                0x0000000000000000       0x18 lib/built-in.o
 .text.timer_get_us
                0x0000000000000000       0x24 lib/built-in.o
 .text.__udelay
                0x0000000000000000       0x84 lib/built-in.o
 .text.ustrtoul
                0x0000000000000000       0x70 lib/built-in.o
 .text.ustrtoull
                0x0000000000000000       0x88 lib/built-in.o
 .text.__assert_fail
                0x0000000000000000       0x14 lib/built-in.o
 .text.print_grouped_ull
                0x0000000000000000       0x88 lib/built-in.o
 .rodata.z_errmsg
                0x0000000000000000       0x28 lib/built-in.o
 .rodata.crc7_syndrome_table
                0x0000000000000000      0x100 lib/built-in.o
 .data          0x0000000000000000        0x0 lib/built-in.o
 .bss           0x0000000000000000        0x0 lib/built-in.o
 .bss.___strtok
                0x0000000000000000        0x4 lib/built-in.o
 .text          0x0000000000000000        0x0 net/built-in.o
 .text.eth_get_dev_by_name
                0x0000000000000000       0x84 net/built-in.o
 .text.eth_unregister
                0x0000000000000000       0x8c net/built-in.o
 .text.net_get_udp_handler
                0x0000000000000000       0x10 net/built-in.o
 .text.net_set_arp_handler
                0x0000000000000000       0x20 net/built-in.o
 .text.random_port
                0x0000000000000000       0x18 net/built-in.o
 .text.VLAN_to_string
                0x0000000000000000       0x3c net/built-in.o
 .rodata.__FUNCTION__.6734
                0x0000000000000000       0x14 net/built-in.o
 .data          0x0000000000000000        0x0 net/built-in.o
 .data.TftpRRQTimeoutMSecs
                0x0000000000000000        0x4 net/built-in.o
 .bss           0x0000000000000000        0x0 net/built-in.o
 .bss.net_busy_flag
                0x0000000000000000        0x4 net/built-in.o
 .text          0x0000000000000000        0x0 arch/arm/lib/eabi_compat.o
 .data          0x0000000000000000        0x0 arch/arm/lib/eabi_compat.o
 .bss           0x0000000000000000        0x0 arch/arm/lib/eabi_compat.o
 .text.__aeabi_unwind_cpp_pr0
                0x0000000000000000        0x4 arch/arm/lib/eabi_compat.o
 .text.__aeabi_unwind_cpp_pr1
                0x0000000000000000        0x4 arch/arm/lib/eabi_compat.o
 .data          0x0000000000000000        0x0 /usr/local/arm-cortex_a8-linux-gnueabi/lib/gcc/arm-cortex_a8-linux-gnueabi/4.9.4/libgcc.a(_udivsi3.o)
 .bss           0x0000000000000000        0x0 /usr/local/arm-cortex_a8-linux-gnueabi/lib/gcc/arm-cortex_a8-linux-gnueabi/4.9.4/libgcc.a(_udivsi3.o)
 .data          0x0000000000000000        0x0 /usr/local/arm-cortex_a8-linux-gnueabi/lib/gcc/arm-cortex_a8-linux-gnueabi/4.9.4/libgcc.a(_divsi3.o)
 .bss           0x0000000000000000        0x0 /usr/local/arm-cortex_a8-linux-gnueabi/lib/gcc/arm-cortex_a8-linux-gnueabi/4.9.4/libgcc.a(_divsi3.o)
 .data          0x0000000000000000        0x0 /usr/local/arm-cortex_a8-linux-gnueabi/lib/gcc/arm-cortex_a8-linux-gnueabi/4.9.4/libgcc.a(_lshrdi3.o)
 .bss           0x0000000000000000        0x0 /usr/local/arm-cortex_a8-linux-gnueabi/lib/gcc/arm-cortex_a8-linux-gnueabi/4.9.4/libgcc.a(_lshrdi3.o)
 .data          0x0000000000000000        0x0 /usr/local/arm-cortex_a8-linux-gnueabi/lib/gcc/arm-cortex_a8-linux-gnueabi/4.9.4/libgcc.a(_ashrdi3.o)
 .bss           0x0000000000000000        0x0 /usr/local/arm-cortex_a8-linux-gnueabi/lib/gcc/arm-cortex_a8-linux-gnueabi/4.9.4/libgcc.a(_ashrdi3.o)
 .data          0x0000000000000000        0x0 /usr/local/arm-cortex_a8-linux-gnueabi/lib/gcc/arm-cortex_a8-linux-gnueabi/4.9.4/libgcc.a(_ashldi3.o)
 .bss           0x0000000000000000        0x0 /usr/local/arm-cortex_a8-linux-gnueabi/lib/gcc/arm-cortex_a8-linux-gnueabi/4.9.4/libgcc.a(_ashldi3.o)
 .data          0x0000000000000000        0x0 /usr/local/arm-cortex_a8-linux-gnueabi/lib/gcc/arm-cortex_a8-linux-gnueabi/4.9.4/libgcc.a(_dvmd_lnx.o)
 .bss           0x0000000000000000        0x0 /usr/local/arm-cortex_a8-linux-gnueabi/lib/gcc/arm-cortex_a8-linux-gnueabi/4.9.4/libgcc.a(_dvmd_lnx.o)

Memory Configuration

Name             Origin             Length             Attributes
*default*        0x0000000000000000 0xffffffffffffffff

Linker script and memory map

Address of section .text set to 0x20000000
                0x0000000000000000                . = 0x0
                0x0000000000000000                . = ALIGN (0x4)

.text           0x0000000020000000    0x1f420
 *(.__image_copy_start)
 .__image_copy_start
                0x0000000020000000        0x0 arch/arm/lib/built-in.o
                0x0000000020000000                __image_copy_start
 arch/arm/cpu/armv7/start.o(.text*)
 .text          0x0000000020000000      0x36c arch/arm/cpu/armv7/start.o
                0x0000000020000000                _start
                0x0000000020000020                _undefined_instruction
                0x0000000020000024                _software_interrupt
                0x0000000020000028                _prefetch_abort
                0x000000002000002c                _data_abort
                0x0000000020000030                _not_used
                0x0000000020000034                _irq
                0x0000000020000038                _fiq
                0x0000000020000040                _end_vect
                0x0000000020000040                IRQ_STACK_START_IN
                0x0000000020000084                c_runtime_cpu_setup
                0x000000002000009c                save_boot_params
                0x00000000200000a0                cpu_init_cp15
                0x00000000200000d8                cpu_init_crit
 *(.text*)
 .text.v7_maint_dcache_all
                0x000000002000036c       0xd0 arch/arm/cpu/armv7/built-in.o
 .text.invalidate_icache_all
                0x000000002000043c       0x18 arch/arm/cpu/armv7/built-in.o
                0x000000002000043c                invalidate_icache_all
 .text.__v7_outer_cache_flush_all
                0x0000000020000454        0x4 arch/arm/cpu/armv7/built-in.o
                0x0000000020000454                __v7_outer_cache_flush_all
                0x0000000020000454                v7_outer_cache_flush_all
 .text.flush_dcache_all
                0x0000000020000458       0x14 arch/arm/cpu/armv7/built-in.o
                0x0000000020000458                flush_dcache_all
 .text.__v7_outer_cache_inval_all
                0x000000002000046c        0x4 arch/arm/cpu/armv7/built-in.o
                0x000000002000046c                v7_outer_cache_inval_all
                0x000000002000046c                __v7_outer_cache_inval_all
 .text.invalidate_dcache_all
                0x0000000020000470       0x14 arch/arm/cpu/armv7/built-in.o
                0x0000000020000470                invalidate_dcache_all
 .text.arm_init_before_mmu
                0x0000000020000484       0x28 arch/arm/cpu/armv7/built-in.o
                0x0000000020000484                arm_init_before_mmu
 .text.__v7_outer_cache_flush_range
                0x00000000200004ac        0x4 arch/arm/cpu/armv7/built-in.o
                0x00000000200004ac                v7_outer_cache_flush_range
                0x00000000200004ac                __v7_outer_cache_flush_range
 .text.flush_dcache_range
                0x00000000200004b0       0x3c arch/arm/cpu/armv7/built-in.o
                0x00000000200004b0                flush_dcache_range
 .text.flush_cache
                0x00000000200004ec        0x8 arch/arm/cpu/armv7/built-in.o
                0x00000000200004ec                flush_cache
 .text.cpu_cache_initialization
                0x00000000200004f4        0x4 arch/arm/cpu/armv7/built-in.o
                0x00000000200004f4                cpu_cache_initialization
 .text.cleanup_before_linux
                0x00000000200004f8       0x28 arch/arm/cpu/armv7/built-in.o
                0x00000000200004f8                cleanup_before_linux
 .text.arch_cpu_init
                0x0000000020000520       0x34 arch/arm/cpu/armv7/built-in.o
                0x0000000020000520                arch_cpu_init
 .text.print_cpuinfo
                0x0000000020000554       0x4c arch/arm/cpu/armv7/built-in.o
                0x0000000020000554                print_cpuinfo
 .text.timer_get_us_down
                0x00000000200005a0       0x38 arch/arm/cpu/armv7/built-in.o
 .text.get_timer
                0x00000000200005d8       0x70 arch/arm/cpu/armv7/built-in.o
                0x00000000200005d8                get_timer
 .text.__udelay
                0x0000000020000648       0x24 arch/arm/cpu/armv7/built-in.o
                0x0000000020000648                __udelay
 .text.reset_timer_masked
                0x000000002000066c       0x44 arch/arm/cpu/armv7/built-in.o
                0x000000002000066c                reset_timer_masked
 .text.timer_init
                0x00000000200006b0       0x54 arch/arm/cpu/armv7/built-in.o
                0x00000000200006b0                timer_init
 .text.get_ticks
                0x0000000020000704       0x14 arch/arm/cpu/armv7/built-in.o
                0x0000000020000704                get_ticks
 .text.get_tbclk
                0x0000000020000718        0x8 arch/arm/cpu/armv7/built-in.o
                0x0000000020000718                get_tbclk
 .text.s5p_config_sromc
                0x0000000020000720       0x4c arch/arm/cpu/armv7/built-in.o
                0x0000000020000720                s5p_config_sromc
 .text.pwm_enable
                0x000000002000076c       0x54 arch/arm/cpu/armv7/built-in.o
                0x000000002000076c                pwm_enable
 .text.pwm_config
                0x00000000200007c0      0x168 arch/arm/cpu/armv7/built-in.o
                0x00000000200007c0                pwm_config
 .text.pwm_init
                0x0000000020000928      0x110 arch/arm/cpu/armv7/built-in.o
                0x0000000020000928                pwm_init
 *fill*         0x0000000020000a38        0x8 
 .text          0x0000000020000a40       0x64 arch/arm/cpu/armv7/s5pc1xx/built-in.o
                0x0000000020000a40                v7_outer_cache_enable
                0x0000000020000a54                v7_outer_cache_disable
                0x0000000020000a68                reset_cpu
 .text.get_pll_clk
                0x0000000020000aa4      0x148 arch/arm/cpu/armv7/s5pc1xx/built-in.o
                0x0000000020000aa4                get_pll_clk
 .text.get_pclkd1
                0x0000000020000bec       0x4c arch/arm/cpu/armv7/s5pc1xx/built-in.o
 .text.get_pclk_sys.constprop.1
                0x0000000020000c38       0x64 arch/arm/cpu/armv7/s5pc1xx/built-in.o
 .text.get_arm_clk
                0x0000000020000c9c       0x6c arch/arm/cpu/armv7/s5pc1xx/built-in.o
                0x0000000020000c9c                get_arm_clk
 .text.get_pwm_clk
                0x0000000020000d08       0x20 arch/arm/cpu/armv7/s5pc1xx/built-in.o
                0x0000000020000d08                get_pwm_clk
 .text.get_uart_clk
                0x0000000020000d28       0x20 arch/arm/cpu/armv7/s5pc1xx/built-in.o
                0x0000000020000d28                get_uart_clk
 .text          0x0000000020000d48       0xe4 arch/arm/lib/built-in.o
                0x0000000020000d48                _main
                0x0000000020000dc8                relocate_code
 .text.display_banner
                0x0000000020000e2c       0x20 arch/arm/lib/built-in.o
 .text.init_baudrate
                0x0000000020000e4c       0x2c arch/arm/lib/built-in.o
 .text.mark_bootstage
                0x0000000020000e78       0x14 arch/arm/lib/built-in.o
 .text.__coloured_LED_init
                0x0000000020000e8c        0x4 arch/arm/lib/built-in.o
                0x0000000020000e8c                coloured_LED_init
                0x0000000020000e8c                __coloured_LED_init
 .text.__red_led_on
                0x0000000020000e90        0x4 arch/arm/lib/built-in.o
                0x0000000020000e90                __red_led_on
                0x0000000020000e90                red_led_on
 .text.__power_init_board
                0x0000000020000e94        0x8 arch/arm/lib/built-in.o
                0x0000000020000e94                __power_init_board
                0x0000000020000e94                power_init_board
 .text.board_init_f
                0x0000000020000e9c      0x114 arch/arm/lib/built-in.o
                0x0000000020000e9c                board_init_f
 .text.board_init_r
                0x0000000020000fb0       0xb0 arch/arm/lib/built-in.o
                0x0000000020000fb0                board_init_r
 .text.boot_jump_linux.isra.5
                0x0000000020001060       0xa4 arch/arm/lib/built-in.o
 .text.arch_lmb_reserve
                0x0000000020001104       0x24 arch/arm/lib/built-in.o
                0x0000000020001104                arch_lmb_reserve
 .text.setup_board_tags
                0x0000000020001128        0x4 arch/arm/lib/built-in.o
                0x0000000020001128                setup_board_tags
 .text.boot_prep_linux
                0x000000002000112c      0x150 arch/arm/lib/built-in.o
 .text.do_bootm_linux
                0x000000002000127c       0x64 arch/arm/lib/built-in.o
                0x000000002000127c                do_bootm_linux
 .text.boot_prep_vxworks
                0x00000000200012e0        0x4 arch/arm/lib/built-in.o
                0x00000000200012e0                boot_prep_vxworks
 .text.boot_jump_vxworks
                0x00000000200012e4        0xc arch/arm/lib/built-in.o
                0x00000000200012e4                boot_jump_vxworks
 .text.interrupt_init
                0x00000000200012f0       0x1c arch/arm/lib/built-in.o
                0x00000000200012f0                interrupt_init
 .text.enable_interrupts
                0x000000002000130c        0x4 arch/arm/lib/built-in.o
                0x000000002000130c                enable_interrupts
 .text.disable_interrupts
                0x0000000020001310        0x8 arch/arm/lib/built-in.o
                0x0000000020001310                disable_interrupts
 .text.bad_mode
                0x0000000020001318       0x10 arch/arm/lib/built-in.o
                0x0000000020001318                bad_mode
 .text.show_regs
                0x0000000020001328      0x13c arch/arm/lib/built-in.o
                0x0000000020001328                show_regs
 .text.do_undefined_instruction
                0x0000000020001464       0x20 arch/arm/lib/built-in.o
                0x0000000020001464                do_undefined_instruction
 .text.do_software_interrupt
                0x0000000020001484       0x20 arch/arm/lib/built-in.o
                0x0000000020001484                do_software_interrupt
 .text.do_prefetch_abort
                0x00000000200014a4       0x20 arch/arm/lib/built-in.o
                0x00000000200014a4                do_prefetch_abort
 .text.do_data_abort
                0x00000000200014c4       0x20 arch/arm/lib/built-in.o
                0x00000000200014c4                do_data_abort
 .text.do_not_used
                0x00000000200014e4       0x20 arch/arm/lib/built-in.o
                0x00000000200014e4                do_not_used
 .text.do_fiq   0x0000000020001504       0x20 arch/arm/lib/built-in.o
                0x0000000020001504                do_fiq
 .text.do_irq   0x0000000020001524       0x20 arch/arm/lib/built-in.o
                0x0000000020001524                do_irq
 .text.do_reset
                0x0000000020001544       0x2c arch/arm/lib/built-in.o
                0x0000000020001544                do_reset
 .text.__enable_caches
                0x0000000020001570        0xc arch/arm/lib/built-in.o
                0x0000000020001570                enable_caches
                0x0000000020001570                __enable_caches
 .text.cp_delay
                0x000000002000157c       0x30 arch/arm/lib/built-in.o
 .text.arm_init_domains
                0x00000000200015ac        0x4 arch/arm/lib/built-in.o
                0x00000000200015ac                arm_init_domains
 .text.set_section_dcache
                0x00000000200015b0       0x14 arch/arm/lib/built-in.o
                0x00000000200015b0                set_section_dcache
 .text.dram_bank_mmu_setup
                0x00000000200015c4       0x40 arch/arm/lib/built-in.o
                0x00000000200015c4                dram_bank_mmu_setup
 .text.icache_enable
                0x0000000020001604       0x18 arch/arm/lib/built-in.o
                0x0000000020001604                icache_enable
 .text.icache_disable
                0x000000002000161c       0x1c arch/arm/lib/built-in.o
                0x000000002000161c                icache_disable
 .text.icache_status
                0x0000000020001638        0xc arch/arm/lib/built-in.o
                0x0000000020001638                icache_status
 .text.dcache_enable
                0x0000000020001644       0x6c arch/arm/lib/built-in.o
                0x0000000020001644                dcache_enable
 .text.dcache_disable
                0x00000000200016b0       0x28 arch/arm/lib/built-in.o
                0x00000000200016b0                dcache_disable
 .text.dcache_status
                0x00000000200016d8        0xc arch/arm/lib/built-in.o
                0x00000000200016d8                dcache_status
 .text          0x00000000200016e4      0x170 board/samsung/smdkv210/built-in.o
                0x00000000200016e4                lowlevel_init
 .text.board_init
                0x0000000020001854       0x80 board/samsung/smdkv210/built-in.o
                0x0000000020001854                board_init
 .text.dram_init
                0x00000000200018d4       0x20 board/samsung/smdkv210/built-in.o
                0x00000000200018d4                dram_init
 .text.dram_init_banksize
                0x00000000200018f4       0x1c board/samsung/smdkv210/built-in.o
                0x00000000200018f4                dram_init_banksize
 .text.checkboard
                0x0000000020001910       0x18 board/samsung/smdkv210/built-in.o
                0x0000000020001910                checkboard
 .text.board_eth_init
                0x0000000020001928       0x10 board/samsung/smdkv210/built-in.o
                0x0000000020001928                board_eth_init
 .text.onenand_board_init
                0x0000000020001938       0xa0 board/samsung/smdkv210/built-in.o
                0x0000000020001938                onenand_board_init
 .text.delete_char.part.0
                0x00000000200019d8       0xd0 common/built-in.o
 .text.cread_add_char
                0x0000000020001aa8       0xe8 common/built-in.o
 .text.__show_boot_progress
                0x0000000020001b90        0x4 common/built-in.o
                0x0000000020001b90                __show_boot_progress
                0x0000000020001b90                show_boot_progress
 .text.readline_into_buffer
                0x0000000020001b94      0x908 common/built-in.o
                0x0000000020001b94                readline_into_buffer
 .text.readline
                0x000000002000249c       0x14 common/built-in.o
                0x000000002000249c                readline
 .text.run_command
                0x00000000200024b0        0x8 common/built-in.o
                0x00000000200024b0                run_command
 .text.run_command_list
                0x00000000200024b8       0x5c common/built-in.o
                0x00000000200024b8                run_command_list
 .text.main_loop
                0x0000000020002514      0x130 common/built-in.o
                0x0000000020002514                main_loop
 .text.do_run   0x0000000020002644       0x74 common/built-in.o
                0x0000000020002644                do_run
 .text.find_cmd_tbl
                0x00000000200026b8       0xa4 common/built-in.o
                0x00000000200026b8                find_cmd_tbl
 .text.find_cmd
                0x000000002000275c       0x28 common/built-in.o
                0x000000002000275c                find_cmd
 .text.cmd_usage
                0x0000000020002784       0x5c common/built-in.o
                0x0000000020002784                cmd_usage
 .text._do_help
                0x00000000200027e0      0x180 common/built-in.o
                0x00000000200027e0                _do_help
 .text.cmd_get_data_size
                0x0000000020002960       0x5c common/built-in.o
                0x0000000020002960                cmd_get_data_size
 .text.cmd_process
                0x00000000200029bc       0xf4 common/built-in.o
                0x00000000200029bc                cmd_process
 .text.dummy    0x0000000020002ab0        0x4 common/built-in.o
 .text.get_version
                0x0000000020002ab4        0x8 common/built-in.o
                0x0000000020002ab4                get_version
 .text.jumptable_init
                0x0000000020002abc      0x190 common/built-in.o
                0x0000000020002abc                jumptable_init
 .text.hash_command
                0x0000000020002c4c       0xa0 common/built-in.o
                0x0000000020002c4c                hash_command
 .text.b_reset  0x0000000020002cec       0x1c common/built-in.o
 .text.static_get
                0x0000000020002d08       0x1c common/built-in.o
 .text.static_peek
                0x0000000020002d24        0xc common/built-in.o
 .text.file_peek
                0x0000000020002d30        0xc common/built-in.o
 .text.mapset   0x0000000020002d3c       0x20 common/built-in.o
 .text.syntax_err
                0x0000000020002d5c        0xc common/built-in.o
 .text.free_pipe_list
                0x0000000020002d68       0xf0 common/built-in.o
 .text.xmalloc  0x0000000020002e58       0x20 common/built-in.o
 .text.new_pipe
                0x0000000020002e78       0x28 common/built-in.o
 .text.xrealloc
                0x0000000020002ea0       0x20 common/built-in.o
 .text.done_command
                0x0000000020002ec0       0x88 common/built-in.o
 .text.done_pipe
                0x0000000020002f48       0x48 common/built-in.o
 .text.done_word
                0x0000000020002f90      0x2d8 common/built-in.o
 .text.do_showvar
                0x0000000020003268       0xfc common/built-in.o
 .text.is_assignment
                0x0000000020003364       0x5c common/built-in.o
 .text.file_get
                0x00000000200033c0      0x1ec common/built-in.o
 .text.b_addchr
                0x00000000200035ac       0x78 common/built-in.o
 .text.b_addqchr
                0x0000000020003624       0x50 common/built-in.o
 .text.get_local_var
                0x0000000020003674       0xa0 common/built-in.o
                0x0000000020003674                get_local_var
 .text.set_local_var
                0x0000000020003714      0x1ac common/built-in.o
                0x0000000020003714                set_local_var
 .text.insert_var_value_sub
                0x00000000200038c0      0x2c0 common/built-in.o
 .text.parse_string_outer
                0x0000000020003b80       0xe4 common/built-in.o
                0x0000000020003b80                parse_string_outer
 .text.run_list_real
                0x0000000020003c64      0x7e4 common/built-in.o
 .text.parse_stream_outer
                0x0000000020004448      0x6ac common/built-in.o
 .text.parse_file_outer
                0x0000000020004af4       0x44 common/built-in.o
                0x0000000020004af4                parse_file_outer
 .text.u_boot_hush_start
                0x0000000020004b38       0x54 common/built-in.o
                0x0000000020004b38                u_boot_hush_start
 .text.hex1_bin
                0x0000000020004b8c       0x40 common/built-in.o
 .text.hex2_bin
                0x0000000020004bcc       0x38 common/built-in.o
 .text.srec_decode
                0x0000000020004c04      0x254 common/built-in.o
                0x0000000020004c04                srec_decode
 .text.CYGACC_COMM_IF_GETC_TIMEOUT.isra.0
                0x0000000020004e58       0x5c common/built-in.o
 .text.xyzModem_flush
                0x0000000020004eb4       0x1c common/built-in.o
 .text.xyzModem_get_hdr
                0x0000000020004ed0      0x230 common/built-in.o
 .text.xyzModem_stream_open
                0x0000000020005100      0x23c common/built-in.o
                0x0000000020005100                xyzModem_stream_open
 .text.xyzModem_stream_read
                0x000000002000533c      0x258 common/built-in.o
                0x000000002000533c                xyzModem_stream_read
 .text.xyzModem_stream_close
                0x0000000020005594       0x54 common/built-in.o
                0x0000000020005594                xyzModem_stream_close
 .text.xyzModem_stream_terminate
                0x00000000200055e8       0x94 common/built-in.o
                0x00000000200055e8                xyzModem_stream_terminate
 .text.xyzModem_error
                0x000000002000567c       0x20 common/built-in.o
                0x000000002000567c                xyzModem_error
 .text.do_go_exec
                0x000000002000569c       0x10 common/built-in.o
                0x000000002000569c                do_go_exec
 .text.do_go    0x00000000200056ac       0x6c common/built-in.o
 .text.copy_args
                0x0000000020005718       0x50 common/built-in.o
 .text.image_info
                0x0000000020005768       0xcc common/built-in.o
 .text.do_bootd
                0x0000000020005834       0x24 common/built-in.o
                0x0000000020005834                do_bootd
 .text.do_bootm_rtems
                0x0000000020005858       0x40 common/built-in.o
 .text.do_bootm_plan9
                0x0000000020005898       0xa4 common/built-in.o
 .text.do_bootm_standalone
                0x000000002000593c       0x64 common/built-in.o
 .text.do_bootm_qnxelf
                0x00000000200059a0       0x5c common/built-in.o
 .text.do_bootm_netbsd
                0x00000000200059fc       0xf8 common/built-in.o
 .text.do_iminfo
                0x0000000020005af4       0x60 common/built-in.o
 .text.__arch_preboot_os
                0x0000000020005b54        0x4 common/built-in.o
                0x0000000020005b54                arch_preboot_os
 .text.do_bootm_states.isra.21.constprop.22
                0x0000000020005b58      0x788 common/built-in.o
 .text.do_bootm
                0x00000000200062e0       0xec common/built-in.o
                0x00000000200062e0                do_bootm
 .text.bootm_maybe_autostart
                0x00000000200063cc       0x78 common/built-in.o
                0x00000000200063cc                bootm_maybe_autostart
 .text.do_bootvx_fdt
                0x0000000020006444       0x3c common/built-in.o
                0x0000000020006444                do_bootvx_fdt
 .text.do_bootm_vxworks
                0x0000000020006480       0x24 common/built-in.o
 .text.do_help  0x00000000200064a4       0x48 common/built-in.o
 .text.do_version
                0x00000000200064ec       0x38 common/built-in.o
 .text.env_attr_walk
                0x0000000020006524      0x114 common/built-in.o
                0x0000000020006524                env_attr_walk
 .text.env_attr_lookup
                0x0000000020006638      0x18c common/built-in.o
                0x0000000020006638                env_attr_lookup
 .text.clear_callback
                0x00000000200067c4       0x10 common/built-in.o
 .text.find_env_callback
                0x00000000200067d4       0x68 common/built-in.o
 .text.on_callbacks
                0x000000002000683c       0x48 common/built-in.o
 .text.set_callback
                0x0000000020006884       0x94 common/built-in.o
 .text.env_callback_init
                0x0000000020006918       0xc4 common/built-in.o
                0x0000000020006918                env_callback_init
 .text.skip_num
                0x00000000200069dc       0x70 common/built-in.o
 .text.clear_flags
                0x0000000020006a4c       0x10 common/built-in.o
 .text.on_flags
                0x0000000020006a5c       0x48 common/built-in.o
 .text.env_flags_parse_vartype
                0x0000000020006aa4       0x50 common/built-in.o
                0x0000000020006aa4                env_flags_parse_vartype
 .text.env_flags_parse_varaccess
                0x0000000020006af4       0x58 common/built-in.o
                0x0000000020006af4                env_flags_parse_varaccess
 .text.set_flags
                0x0000000020006b4c       0xac common/built-in.o
 .text.env_flags_init
                0x0000000020006bf8       0xd8 common/built-in.o
                0x0000000020006bf8                env_flags_init
 .text.env_flags_validate
                0x0000000020006cd0      0x324 common/built-in.o
                0x0000000020006cd0                env_flags_validate
 .text.env_relocate_spec
                0x0000000020006ff4       0x70 common/built-in.o
                0x0000000020006ff4                env_relocate_spec
 .text.saveenv  0x0000000020007064      0x148 common/built-in.o
                0x0000000020007064                saveenv
 .text.env_init
                0x00000000200071ac       0x1c common/built-in.o
                0x00000000200071ac                env_init
 .text.source   0x00000000200071c8       0xd8 common/built-in.o
                0x00000000200071c8                source
 .text.do_source
                0x00000000200072a0       0x44 common/built-in.o
                0x00000000200072a0                do_source
 .text.print_num
                0x00000000200072e4       0x18 common/built-in.o
 .text.do_bdinfo
                0x00000000200072fc      0x178 common/built-in.o
                0x00000000200072fc                do_bdinfo
 .text.parse_argv
                0x0000000020007474       0x64 common/built-in.o
 .text.do_icache
                0x00000000200074d8       0x88 common/built-in.o
                0x00000000200074d8                do_icache
 .text.do_dcache
                0x0000000020007560       0x88 common/built-in.o
                0x0000000020007560                do_dcache
 .text.do_coninfo
                0x00000000200075e8       0xbc common/built-in.o
 .text.do_echo  0x00000000200076a4       0xb0 common/built-in.o
 .text.load_elf_image_shdr
                0x0000000020007754       0x8c common/built-in.o
 .text.do_bootelf_exec
                0x00000000200077e0       0x44 common/built-in.o
                0x00000000200077e0                do_bootelf_exec
 .text.valid_elf_image
                0x0000000020007824       0x4c common/built-in.o
                0x0000000020007824                valid_elf_image
 .text.do_bootelf
                0x0000000020007870      0x158 common/built-in.o
                0x0000000020007870                do_bootelf
 .text.do_bootvx
                0x00000000200079c8      0x288 common/built-in.o
                0x00000000200079c8                do_bootvx
 .text.do_exit  0x0000000020007c50       0x30 common/built-in.o
 .text.do_fat_fsload
                0x0000000020007c80       0x18 common/built-in.o
                0x0000000020007c80                do_fat_fsload
 .text.do_fat_ls
                0x0000000020007c98       0x18 common/built-in.o
 .text.do_fat_fsinfo
                0x0000000020007cb0       0x90 common/built-in.o
 .text.evalexp  0x0000000020007d40       0x74 common/built-in.o
 .text.evalstr  0x0000000020007db4       0x6c common/built-in.o
 .text.binary_test
                0x0000000020007e20      0x1b0 common/built-in.o
 .text.do_itest
                0x0000000020007fd0       0x98 common/built-in.o
 .text.bin_data_init
                0x0000000020008068       0x2c common/built-in.o
 .text.k_data_save
                0x0000000020008094       0x4c common/built-in.o
 .text.k_data_restore
                0x00000000200080e0       0x4c common/built-in.o
 .text.getcxmodem
                0x000000002000812c       0x20 common/built-in.o
 .text.load_serial_ymodem
                0x000000002000814c       0xcc common/built-in.o
 .text.bin_data_char
                0x0000000020008218       0x2c common/built-in.o
 .text.chk1.constprop.1
                0x0000000020008244       0x2c common/built-in.o
 .text.s1_sendpacket.constprop.2
                0x0000000020008270       0x50 common/built-in.o
 .text.load_serial
                0x00000000200082c0      0x1e0 common/built-in.o
 .text.do_load_serial
                0x00000000200084a0       0xdc common/built-in.o
 .text.do_load_serial_bin
                0x000000002000857c      0x7b0 common/built-in.o
 .text.do_mem_mw
                0x0000000020008d2c       0xc0 common/built-in.o
 .text.do_mem_loop
                0x0000000020008dec       0xec common/built-in.o
 .text.do_mem_md
                0x0000000020008ed8       0xec common/built-in.o
 .text.do_mem_cmp
                0x0000000020008fc4      0x16c common/built-in.o
 .text.do_mem_base
                0x0000000020009130       0x40 common/built-in.o
 .text.do_mem_cp
                0x0000000020009170       0xd8 common/built-in.o
 .text.do_mem_crc
                0x0000000020009248       0x48 common/built-in.o
 .text.mod_mem.isra.2
                0x0000000020009290      0x164 common/built-in.o
 .text.do_mem_mm
                0x00000000200093f4        0x8 common/built-in.o
 .text.do_mem_nm
                0x00000000200093fc        0x8 common/built-in.o
 .text.do_sleep
                0x0000000020009404       0x70 common/built-in.o
 .text.part_delall
                0x0000000020009474       0x44 common/built-in.o
 .text.memsize_parse
                0x00000000200094b8       0x80 common/built-in.o
 .text.mtd_part_info
                0x0000000020009538       0x98 common/built-in.o
 .text.memsize_format
                0x00000000200095d0       0x90 common/built-in.o
 .text.index_partitions
                0x0000000020009660       0xb4 common/built-in.o
 .text.current_save
                0x0000000020009714       0xbc common/built-in.o
 .text.part_sort_add
                0x00000000200097d0      0x11c common/built-in.o
 .text.device_del
                0x00000000200098ec       0x7c common/built-in.o
 .text.generate_mtdparts_save.constprop.7
                0x0000000020009968      0x304 common/built-in.o
 .text.device_delall.constprop.9
                0x0000000020009c6c       0x64 common/built-in.o
 .text.mtd_devices_init
                0x0000000020009cd0       0x2c common/built-in.o
 .text.get_mtd_info.constprop.10
                0x0000000020009cfc       0x78 common/built-in.o
 .text.part_validate
                0x0000000020009d74      0x360 common/built-in.o
 .text.device_find
                0x000000002000a0d4       0x4c common/built-in.o
                0x000000002000a0d4                device_find
 .text.device_parse
                0x000000002000a120      0x560 common/built-in.o
 .text.mtd_id_parse
                0x000000002000a680      0x11c common/built-in.o
                0x000000002000a680                mtd_id_parse
 .text.find_dev_and_part
                0x000000002000a79c      0x1b0 common/built-in.o
                0x000000002000a79c                find_dev_and_part
 .text.mtdparts_init
                0x000000002000a94c      0x660 common/built-in.o
                0x000000002000a94c                mtdparts_init
 .text.do_chpart
                0x000000002000afac       0xd4 common/built-in.o
 .text.do_mtdparts
                0x000000002000b080      0x5c0 common/built-in.o
 .text.netboot_common
                0x000000002000b640      0x294 common/built-in.o
 .text.do_bootp
                0x000000002000b8d4        0xc common/built-in.o
 .text.do_nfs   0x000000002000b8e0        0xc common/built-in.o
 .text.do_tftpb
                0x000000002000b8ec       0x40 common/built-in.o
                0x000000002000b8ec                do_tftpb
 .text.do_onenand
                0x000000002000b92c       0x7c common/built-in.o
 .text.do_onenand_markbad
                0x000000002000b9a8       0x90 common/built-in.o
 .text.do_onenand_info
                0x000000002000ba38       0x28 common/built-in.o
 .text.arg_off_size
                0x000000002000ba60      0x154 common/built-in.o
 .text.onenand_dump
                0x000000002000bbb4      0x21c common/built-in.o
 .text.do_onenand_dump
                0x000000002000bdd0       0x8c common/built-in.o
 .text.do_onenand_read
                0x000000002000be5c      0x1f4 common/built-in.o
 .text.do_onenand_bad
                0x000000002000c050       0x84 common/built-in.o
 .text.do_onenand_test
                0x000000002000c0d4      0x2b8 common/built-in.o
 .text.do_onenand_write
                0x000000002000c38c      0x364 common/built-in.o
 .text.do_onenand_erase
                0x000000002000c6f0      0x174 common/built-in.o
 .text.do_reginfo
                0x000000002000c864        0x8 common/built-in.o
 .text.do_false
                0x000000002000c86c        0x8 common/built-in.o
 .text.do_true  0x000000002000c874        0x8 common/built-in.o
 .text.do_test  0x000000002000c87c      0x33c common/built-in.o
 .text.do_imgextract
                0x000000002000cbb8      0x280 common/built-in.o
 .text.do_env_delete
                0x000000002000ce38       0x9c common/built-in.o
 .text.do_env_save
                0x000000002000ced4       0x2c common/built-in.o
 .text.do_env   0x000000002000cf00       0x64 common/built-in.o
 .text.env_print
                0x000000002000cf64       0xc0 common/built-in.o
 .text.do_env_print
                0x000000002000d024       0xc8 common/built-in.o
 .text.do_env_import
                0x000000002000d0ec      0x260 common/built-in.o
 .text.do_env_default
                0x000000002000d34c       0xa8 common/built-in.o
 .text._do_env_set.isra.0
                0x000000002000d3f4      0x1b8 common/built-in.o
 .text.do_env_set
                0x000000002000d5ac       0x1c common/built-in.o
 .text.get_env_id
                0x000000002000d5c8       0x10 common/built-in.o
                0x000000002000d5c8                get_env_id
 .text.setenv   0x000000002000d5d8       0x58 common/built-in.o
                0x000000002000d5d8                setenv
 .text.setenv_ulong
                0x000000002000d630       0x20 common/built-in.o
                0x000000002000d630                setenv_ulong
 .text.setenv_hex
                0x000000002000d650       0x34 common/built-in.o
                0x000000002000d650                setenv_hex
 .text.do_env_export
                0x000000002000d684      0x264 common/built-in.o
 .text.envmatch
                0x000000002000d8e8       0x6c common/built-in.o
                0x000000002000d8e8                envmatch
 .text.getenv_f
                0x000000002000d954       0xc8 common/built-in.o
                0x000000002000d954                getenv_f
 .text.getenv   0x000000002000da1c       0x78 common/built-in.o
                0x000000002000da1c                getenv
 .text.getenv_ulong
                0x000000002000da94       0x30 common/built-in.o
                0x000000002000da94                getenv_ulong
 .text.do_env_edit
                0x000000002000dac4       0x78 common/built-in.o
 .text.__env_get_char_spec
                0x000000002000db3c        0xc common/built-in.o
                0x000000002000db3c                env_get_char_spec
 .text.env_get_addr
                0x000000002000db48       0x20 common/built-in.o
                0x000000002000db48                env_get_addr
 .text.env_get_char_memory
                0x000000002000db68       0x10 common/built-in.o
                0x000000002000db68                env_get_char_memory
 .text.env_get_char
                0x000000002000db78       0x30 common/built-in.o
                0x000000002000db78                env_get_char
 .text.getenv_yesno
                0x000000002000dba8       0x40 common/built-in.o
                0x000000002000dba8                getenv_yesno
 .text.getenv_default
                0x000000002000dbe8       0x30 common/built-in.o
                0x000000002000dbe8                getenv_default
 .text.set_default_env
                0x000000002000dc18       0xbc common/built-in.o
                0x000000002000dc18                set_default_env
 .text.set_default_vars
                0x000000002000dcd4       0x34 common/built-in.o
                0x000000002000dcd4                set_default_vars
 .text.env_import
                0x000000002000dd08       0xe0 common/built-in.o
                0x000000002000dd08                env_import
 .text.env_relocate
                0x000000002000dde8       0x30 common/built-in.o
                0x000000002000dde8                env_relocate
 .text.console_setfile
                0x000000002000de18       0xa4 common/built-in.o
 .text.fgetc    0x000000002000debc       0x24 common/built-in.o
                0x000000002000debc                fgetc
 .text.ftstc    0x000000002000dee0       0x24 common/built-in.o
                0x000000002000dee0                ftstc
 .text.getc     0x000000002000df04       0x24 common/built-in.o
                0x000000002000df04                getc
 .text.tstc     0x000000002000df28       0x24 common/built-in.o
                0x000000002000df28                tstc
 .text.putc     0x000000002000df4c       0x30 common/built-in.o
                0x000000002000df4c                putc
 .text.puts     0x000000002000df7c       0x30 common/built-in.o
                0x000000002000df7c                puts
 .text.printf   0x000000002000dfac       0x4c common/built-in.o
                0x000000002000dfac                printf
 .text.vprintf  0x000000002000dff8       0x3c common/built-in.o
                0x000000002000dff8                vprintf
 .text.ctrlc    0x000000002000e034       0x58 common/built-in.o
                0x000000002000e034                ctrlc
 .text.had_ctrlc
                0x000000002000e08c       0x10 common/built-in.o
                0x000000002000e08c                had_ctrlc
 .text.clear_ctrlc
                0x000000002000e09c       0x14 common/built-in.o
                0x000000002000e09c                clear_ctrlc
 .text.search_device
                0x000000002000e0b0       0x28 common/built-in.o
                0x000000002000e0b0                search_device
 .text.console_assign
                0x000000002000e0d8       0x48 common/built-in.o
                0x000000002000e0d8                console_assign
 .text.on_console
                0x000000002000e120       0xc0 common/built-in.o
 .text.console_init_f
                0x000000002000e1e0       0x10 common/built-in.o
                0x000000002000e1e0                console_init_f
 .text.stdio_print_current_devices
                0x000000002000e1f0       0xb0 common/built-in.o
                0x000000002000e1f0                stdio_print_current_devices
 .text.console_init_r
                0x000000002000e2a0       0xe0 common/built-in.o
                0x000000002000e2a0                console_init_r
 .text.sbrk     0x000000002000e380       0x70 common/built-in.o
                0x000000002000e380                sbrk
 .text.mem_malloc_init
                0x000000002000e3f0       0x34 common/built-in.o
                0x000000002000e3f0                mem_malloc_init
 .text.malloc_trim
                0x000000002000e424       0xcc common/built-in.o
                0x000000002000e424                malloc_trim
 .text.free     0x000000002000e4f0      0x230 common/built-in.o
                0x000000002000e4f0                free
 .text.malloc   0x000000002000e720      0x608 common/built-in.o
                0x000000002000e720                malloc
 .text.calloc   0x000000002000ed28       0xd4 common/built-in.o
                0x000000002000ed28                calloc
 .text.realloc  0x000000002000edfc      0x4c0 common/built-in.o
                0x000000002000edfc                realloc
 .text.memalign
                0x000000002000f2bc      0x10c common/built-in.o
                0x000000002000f2bc                memalign
 .text.on_loadaddr
                0x000000002000f3c8       0x38 common/built-in.o
 .text.image_check_hcrc
                0x000000002000f400       0x4c common/built-in.o
                0x000000002000f400                image_check_hcrc
 .text.image_check_dcrc
                0x000000002000f44c       0x38 common/built-in.o
                0x000000002000f44c                image_check_dcrc
 .text.image_multi_count
                0x000000002000f484       0x1c common/built-in.o
                0x000000002000f484                image_multi_count
 .text.image_multi_getimg
                0x000000002000f4a0       0x80 common/built-in.o
                0x000000002000f4a0                image_multi_getimg
 .text.getenv_bootm_low
                0x000000002000f520       0x30 common/built-in.o
                0x000000002000f520                getenv_bootm_low
 .text.getenv_bootm_size
                0x000000002000f550       0x5c common/built-in.o
                0x000000002000f550                getenv_bootm_size
 .text.memmove_wd
                0x000000002000f5ac        0xc common/built-in.o
                0x000000002000f5ac                memmove_wd
 .text.genimg_print_size
                0x000000002000f5b8       0x30 common/built-in.o
                0x000000002000f5b8                genimg_print_size
 .text.get_table_entry_name
                0x000000002000f5e8       0x2c common/built-in.o
                0x000000002000f5e8                get_table_entry_name
 .text.genimg_get_os_name
                0x000000002000f614       0x18 common/built-in.o
                0x000000002000f614                genimg_get_os_name
 .text.genimg_get_arch_name
                0x000000002000f62c       0x18 common/built-in.o
                0x000000002000f62c                genimg_get_arch_name
 .text.genimg_get_type_name
                0x000000002000f644       0x18 common/built-in.o
                0x000000002000f644                genimg_get_type_name
 .text.genimg_get_comp_name
                0x000000002000f65c       0x18 common/built-in.o
                0x000000002000f65c                genimg_get_comp_name
 .text.image_print_contents
                0x000000002000f674      0x174 common/built-in.o
                0x000000002000f674                image_print_contents
 .text.genimg_get_format
                0x000000002000f7e8       0x1c common/built-in.o
                0x000000002000f7e8                genimg_get_format
 .text.genimg_get_image
                0x000000002000f804        0x4 common/built-in.o
                0x000000002000f804                genimg_get_image
 .text.boot_get_ramdisk
                0x000000002000f808      0x238 common/built-in.o
                0x000000002000f808                boot_get_ramdisk
 .text.boot_ramdisk_high
                0x000000002000fa40      0x130 common/built-in.o
                0x000000002000fa40                boot_ramdisk_high
 .text.get_ram_size
                0x000000002000fb70       0xe4 common/built-in.o
                0x000000002000fb70                get_ram_size
 .text.get_effective_memsize
                0x000000002000fc54        0x8 common/built-in.o
                0x000000002000fc54                get_effective_memsize
 .text.stdio_get_list
                0x000000002000fc5c        0xc common/built-in.o
                0x000000002000fc5c                stdio_get_list
 .text.stdio_get_by_name
                0x000000002000fc68       0x5c common/built-in.o
                0x000000002000fc68                stdio_get_by_name
 .text.stdio_clone
                0x000000002000fcc4       0x38 common/built-in.o
                0x000000002000fcc4                stdio_clone
 .text.stdio_register
                0x000000002000fcfc       0x3c common/built-in.o
                0x000000002000fcfc                stdio_register
 .text.stdio_init
                0x000000002000fd38       0x8c common/built-in.o
                0x000000002000fd38                stdio_init
 .text.get_device
                0x000000002000fdc4       0x58 disk/built-in.o
                0x000000002000fdc4                get_device
 .text.get_device_and_partition
                0x000000002000fe1c      0x298 disk/built-in.o
                0x000000002000fe1c                get_device_and_partition
 .text.s5p_gpio_cfg_pin
                0x00000000200100b4       0x1c drivers/gpio/built-in.o
                0x00000000200100b4                s5p_gpio_cfg_pin
 .text.add_mtd_device
                0x00000000200100d0       0x88 drivers/mtd/built-in.o
                0x00000000200100d0                add_mtd_device
 .text.get_mtd_device_nm
                0x0000000020010158       0x6c drivers/mtd/built-in.o
                0x0000000020010158                get_mtd_device_nm
 .text.mtd_erase
                0x00000000200101c4       0x90 drivers/mtd/built-in.o
                0x00000000200101c4                mtd_erase
 .text.mtd_read
                0x0000000020010254       0xb8 drivers/mtd/built-in.o
                0x0000000020010254                mtd_read
 .text.mtd_write
                0x000000002001030c       0x9c drivers/mtd/built-in.o
                0x000000002001030c                mtd_write
 .text.mtd_read_oob
                0x00000000200103a8       0x28 drivers/mtd/built-in.o
                0x00000000200103a8                mtd_read_oob
 .text.mtd_block_isbad
                0x00000000200103d0       0x4c drivers/mtd/built-in.o
                0x00000000200103d0                mtd_block_isbad
 .text.mtd_block_markbad
                0x000000002001041c       0x60 drivers/mtd/built-in.o
                0x000000002001041c                mtd_block_markbad
 .text.part_erase
                0x000000002001047c       0x6c drivers/mtd/built-in.o
 .text.mtd_erase_callback
                0x00000000200104e8       0x68 drivers/mtd/built-in.o
                0x00000000200104e8                mtd_erase_callback
 .text.onenand_init
                0x0000000020010550       0x9c drivers/mtd/onenand/built-in.o
                0x0000000020010550                onenand_init
 .text.memcpy_16
                0x00000000200105ec       0x1c drivers/mtd/onenand/built-in.o
 .text.onenand_readw
                0x0000000020010608        0xc drivers/mtd/onenand/built-in.o
 .text.onenand_writew
                0x0000000020010614        0x8 drivers/mtd/onenand/built-in.o
 .text.flexonenand_addr
                0x000000002001061c       0x98 drivers/mtd/onenand/built-in.o
 .text.onenand_read_bufferram
                0x00000000200106b4       0x88 drivers/mtd/onenand/built-in.o
 .text.onenand_sync_read_bufferram
                0x000000002001073c       0x84 drivers/mtd/onenand/built-in.o
 .text.onenand_write_bufferram
                0x00000000200107c0       0x88 drivers/mtd/onenand/built-in.o
 .text.onenand_sync
                0x0000000020010848        0x4 drivers/mtd/onenand/built-in.o
                0x0000000020010848                onenand_sync
 .text.onenand_chip_probe
                0x000000002001084c       0xfc drivers/mtd/onenand/built-in.o
 .text.flexonenand_get_size
                0x0000000020010948      0x3f4 drivers/mtd/onenand/built-in.o
 .text.onenand_transfer_auto_oob
                0x0000000020010d3c      0x124 drivers/mtd/onenand/built-in.o
 .text.onenand_update_bufferram.isra.2
                0x0000000020010e60       0x54 drivers/mtd/onenand/built-in.o
 .text.onenand_read_ecc
                0x0000000020010eb4       0x80 drivers/mtd/onenand/built-in.o
 .text.onenand_bbt_wait
                0x0000000020010f34       0xc8 drivers/mtd/onenand/built-in.o
 .text.onenand_wait
                0x0000000020010ffc       0xc4 drivers/mtd/onenand/built-in.o
 .text.onenand_fill_auto_oob.isra.8
                0x00000000200110c0       0xec drivers/mtd/onenand/built-in.o
 .text.onenand_write_ops_nolock
                0x00000000200111ac      0x2ec drivers/mtd/onenand/built-in.o
 .text.onenand_write
                0x0000000020011498       0x60 drivers/mtd/onenand/built-in.o
                0x0000000020011498                onenand_write
 .text.onenand_write_oob_nolock
                0x00000000200114f8      0x2e4 drivers/mtd/onenand/built-in.o
 .text.onenand_write_oob
                0x00000000200117dc       0x30 drivers/mtd/onenand/built-in.o
                0x00000000200117dc                onenand_write_oob
 .text.onenand_block_isbad_nolock.constprop.12
                0x000000002001180c       0x24 drivers/mtd/onenand/built-in.o
 .text.onenand_block_isbad
                0x0000000020011830       0x24 drivers/mtd/onenand/built-in.o
                0x0000000020011830                onenand_block_isbad
 .text.onenand_block_markbad
                0x0000000020011854       0x38 drivers/mtd/onenand/built-in.o
                0x0000000020011854                onenand_block_markbad
 .text.onenand_block
                0x000000002001188c       0x88 drivers/mtd/onenand/built-in.o
                0x000000002001188c                onenand_block
 .text.onenand_default_block_markbad
                0x0000000020011914       0xac drivers/mtd/onenand/built-in.o
 .text.onenand_addr
                0x00000000200119c0       0x30 drivers/mtd/onenand/built-in.o
                0x00000000200119c0                onenand_addr
 .text.onenand_command
                0x00000000200119f0      0x22c drivers/mtd/onenand/built-in.o
 .text.flexonenand_region
                0x0000000020011c1c       0x44 drivers/mtd/onenand/built-in.o
                0x0000000020011c1c                flexonenand_region
 .text.onenand_recover_lsb
                0x0000000020011c60       0xa0 drivers/mtd/onenand/built-in.o
 .text.onenand_read_ops_nolock
                0x0000000020011d00      0x4e8 drivers/mtd/onenand/built-in.o
 .text.onenand_read
                0x00000000200121e8       0x60 drivers/mtd/onenand/built-in.o
                0x00000000200121e8                onenand_read
 .text.onenand_read_oob_nolock
                0x0000000020012248      0x294 drivers/mtd/onenand/built-in.o
 .text.onenand_read_oob
                0x00000000200124dc       0x30 drivers/mtd/onenand/built-in.o
                0x00000000200124dc                onenand_read_oob
 .text.onenand_erase
                0x000000002001250c      0x264 drivers/mtd/onenand/built-in.o
                0x000000002001250c                onenand_erase
 .text.onenand_bbt_read_oob
                0x0000000020012770      0x170 drivers/mtd/onenand/built-in.o
                0x0000000020012770                onenand_bbt_read_oob
 .text.onenand_print_device_info
                0x00000000200128e0       0xc4 drivers/mtd/onenand/built-in.o
                0x00000000200128e0                onenand_print_device_info
 .text.onenand_probe
                0x00000000200129a4      0x3a8 drivers/mtd/onenand/built-in.o
                0x00000000200129a4                onenand_probe
 .text.onenand_scan
                0x0000000020012d4c      0x5c0 drivers/mtd/onenand/built-in.o
                0x0000000020012d4c                onenand_scan
 .text.onenand_isbad_bbt
                0x000000002001330c       0x44 drivers/mtd/onenand/built-in.o
 .text.onenand_scan_bbt
                0x0000000020013350      0x21c drivers/mtd/onenand/built-in.o
                0x0000000020013350                onenand_scan_bbt
 .text.onenand_default_bbt
                0x000000002001356c       0x5c drivers/mtd/onenand/built-in.o
                0x000000002001356c                onenand_default_bbt
 .text.s3c_write_cmd
                0x00000000200135c8       0x18 drivers/mtd/onenand/built-in.o
 .text.s3c_mem_addr
                0x00000000200135e0       0x10 drivers/mtd/onenand/built-in.o
 .text.s3c_onenand_reset
                0x00000000200135f0       0x74 drivers/mtd/onenand/built-in.o
 .text.s3c_get_bufferram
                0x0000000020013664       0x4c drivers/mtd/onenand/built-in.o
 .text.s3c_onenand_bbt_wait
                0x00000000200136b0       0x80 drivers/mtd/onenand/built-in.o
 .text.s3c_onenand_wait
                0x0000000020013730       0xf8 drivers/mtd/onenand/built-in.o
 .text.s3c_onenand_readw
                0x0000000020013828      0x150 drivers/mtd/onenand/built-in.o
 .text.s3c_onenand_writew
                0x0000000020013978       0xec drivers/mtd/onenand/built-in.o
 .text.s3c_onenand_check_lock_status.isra.0
                0x0000000020013a64       0x8c drivers/mtd/onenand/built-in.o
 .text.s3c_onenand_unlock_all
                0x0000000020013af0      0x108 drivers/mtd/onenand/built-in.o
 .text.s3c_onenand_command
                0x0000000020013bf8      0x250 drivers/mtd/onenand/built-in.o
 .text.s3c_onenand_init
                0x0000000020013e48      0x11c drivers/mtd/onenand/built-in.o
                0x0000000020013e48                s3c_onenand_init
 .text.smc911x_set_mac_csr.isra.0
                0x0000000020013f64       0x44 drivers/net/built-in.o
 .text.smc911x_reset
                0x0000000020013fa8       0xf4 drivers/net/built-in.o
 .text.smc911x_halt
                0x000000002001409c        0x4 drivers/net/built-in.o
 .text.smc911x_get_mac_csr.isra.3
                0x00000000200140a0       0x40 drivers/net/built-in.o
 .text.smc911x_eth_phy_write.constprop.4
                0x00000000200140e0       0x64 drivers/net/built-in.o
 .text.smc911x_init
                0x0000000020014144      0x1a4 drivers/net/built-in.o
 .text.smc911x_reg_read
                0x00000000200142e8       0x18 drivers/net/built-in.o
                0x00000000200142e8                pkt_data_pull
 .text.smc911x_rx
                0x0000000020014300       0x9c drivers/net/built-in.o
 .text.smc911x_reg_write
                0x000000002001439c       0x1c drivers/net/built-in.o
                0x000000002001439c                pkt_data_push
 .text.smc911x_send
                0x00000000200143b8      0x114 drivers/net/built-in.o
 .text.smc911x_initialize
                0x00000000200144cc      0x170 drivers/net/built-in.o
                0x00000000200144cc                smc911x_initialize
 .text.get_current
                0x000000002001463c       0x40 drivers/serial/built-in.o
 .text.serial_null
                0x000000002001467c        0x4 drivers/serial/built-in.o
                0x000000002001467c                jz_serial_initialize
                0x000000002001467c                bfin_serial_initialize
                0x000000002001467c                p3mx_serial_initialize
                0x000000002001467c                leon2_serial_initialize
                0x000000002001467c                leon3_serial_initialize
                0x000000002001467c                amirix_serial_initialize
                0x000000002001467c                marvell_serial_initialize
                0x000000002001467c                cpci750_serial_initialize
                0x000000002001467c                ns16550_serial_initialize
                0x000000002001467c                asc_serial_initialize
                0x000000002001467c                altera_serial_initialize
                0x000000002001467c                oc_serial_initialize
                0x000000002001467c                sh_serial_initialize
                0x000000002001467c                mxs_auart_initialize
                0x000000002001467c                arm_dcc_initialize
                0x000000002001467c                bmw_serial_initialize
                0x000000002001467c                arc_serial_initialize
                0x000000002001467c                mcf_serial_initialize
                0x000000002001467c                lh7a40x_serial_initialize
                0x000000002001467c                evb64260_serial_initialize
                0x000000002001467c                lpc32xx_serial_initialize
                0x000000002001467c                max3100_serial_initialize
                0x000000002001467c                mpc85xx_serial_initialize
                0x000000002001467c                imx_serial_initialize
                0x000000002001467c                bfin_jtag_initialize
                0x000000002001467c                cogent_serial_initialize
                0x000000002001467c                clps7111_serial_initialize
                0x000000002001467c                ml2_serial_initialize
                0x000000002001467c                sandbox_serial_initialize
                0x000000002001467c                s3c24xx_serial_initialize
                0x000000002001467c                sconsole_serial_initialize
                0x000000002001467c                uartlite_serial_initialize
                0x000000002001467c                au1x00_serial_initialize
                0x000000002001467c                pxa_serial_initialize
                0x000000002001467c                atmel_serial_initialize
                0x000000002001467c                pl01x_serial_initialize
                0x000000002001467c                altera_jtag_serial_initialize
                0x000000002001467c                zynq_serial_initalize
                0x000000002001467c                mpc512x_serial_initialize
                0x000000002001467c                ks8695_serial_initialize
                0x000000002001467c                sa1100_serial_initialize
                0x000000002001467c                mpc8260_scc_serial_initialize
                0x000000002001467c                mxc_serial_initialize
                0x000000002001467c                iop480_serial_initialize
                0x000000002001467c                mpc8xx_serial_initialize
                0x000000002001467c                mpc8260_smc_serial_initialize
                0x000000002001467c                mpc5xx_serial_initialize
 .text.serial_register
                0x0000000020014680       0x18 drivers/serial/built-in.o
                0x0000000020014680                serial_register
 .text.serial_stdio_init
                0x0000000020014698       0x88 drivers/serial/built-in.o
                0x0000000020014698                serial_stdio_init
 .text.serial_assign
                0x0000000020014720       0x4c drivers/serial/built-in.o
                0x0000000020014720                serial_assign
 .text.serial_initialize
                0x000000002001476c       0xd0 drivers/serial/built-in.o
                0x000000002001476c                serial_initialize
 .text.serial_init
                0x000000002001483c       0x14 drivers/serial/built-in.o
                0x000000002001483c                serial_init
 .text.serial_setbrg
                0x0000000020014850       0x14 drivers/serial/built-in.o
                0x0000000020014850                serial_setbrg
 .text.on_baudrate
                0x0000000020014864       0xec drivers/serial/built-in.o
 .text.serial_getc
                0x0000000020014950       0x14 drivers/serial/built-in.o
                0x0000000020014950                serial_getc
 .text.serial_tstc
                0x0000000020014964       0x14 drivers/serial/built-in.o
                0x0000000020014964                serial_tstc
 .text.serial_putc
                0x0000000020014978       0x1c drivers/serial/built-in.o
                0x0000000020014978                serial_putc
 .text.serial_puts
                0x0000000020014994       0x1c drivers/serial/built-in.o
                0x0000000020014994                serial_puts
 .text.serial_tstc_dev
                0x00000000200149b0       0x5c drivers/serial/built-in.o
 .text.s5p_serial0_tstc
                0x0000000020014a0c        0x8 drivers/serial/built-in.o
 .text.s5p_serial1_tstc
                0x0000000020014a14        0x8 drivers/serial/built-in.o
 .text.s5p_serial2_tstc
                0x0000000020014a1c        0x8 drivers/serial/built-in.o
 .text.s5p_serial3_tstc
                0x0000000020014a24        0x8 drivers/serial/built-in.o
 .text.serial_putc_dev
                0x0000000020014a2c       0xb0 drivers/serial/built-in.o
 .text.serial_puts_dev
                0x0000000020014adc       0x28 drivers/serial/built-in.o
 .text.s5p_serial0_puts
                0x0000000020014b04        0x8 drivers/serial/built-in.o
 .text.s5p_serial1_puts
                0x0000000020014b0c        0x8 drivers/serial/built-in.o
 .text.s5p_serial2_puts
                0x0000000020014b14        0x8 drivers/serial/built-in.o
 .text.s5p_serial3_puts
                0x0000000020014b1c        0x8 drivers/serial/built-in.o
 .text.s5p_serial0_putc
                0x0000000020014b24        0x8 drivers/serial/built-in.o
 .text.s5p_serial1_putc
                0x0000000020014b2c        0x8 drivers/serial/built-in.o
 .text.s5p_serial2_putc
                0x0000000020014b34        0x8 drivers/serial/built-in.o
 .text.s5p_serial3_putc
                0x0000000020014b3c        0x8 drivers/serial/built-in.o
 .text.serial_setbrg_dev
                0x0000000020014b44       0x88 drivers/serial/built-in.o
 .text.s5p_serial0_setbrg
                0x0000000020014bcc        0x8 drivers/serial/built-in.o
 .text.serial_init_dev
                0x0000000020014bd4       0x64 drivers/serial/built-in.o
 .text.s5p_serial0_init
                0x0000000020014c38        0x8 drivers/serial/built-in.o
 .text.s5p_serial1_init
                0x0000000020014c40        0x8 drivers/serial/built-in.o
 .text.s5p_serial2_init
                0x0000000020014c48        0x8 drivers/serial/built-in.o
 .text.s5p_serial3_init
                0x0000000020014c50        0x8 drivers/serial/built-in.o
 .text.s5p_serial1_setbrg
                0x0000000020014c58        0x8 drivers/serial/built-in.o
 .text.s5p_serial2_setbrg
                0x0000000020014c60        0x8 drivers/serial/built-in.o
 .text.s5p_serial3_setbrg
                0x0000000020014c68        0x8 drivers/serial/built-in.o
 .text.serial_getc_dev
                0x0000000020014c70       0xb4 drivers/serial/built-in.o
 .text.s5p_serial0_getc
                0x0000000020014d24        0x8 drivers/serial/built-in.o
 .text.s5p_serial1_getc
                0x0000000020014d2c        0x8 drivers/serial/built-in.o
 .text.s5p_serial2_getc
                0x0000000020014d34        0x8 drivers/serial/built-in.o
 .text.s5p_serial3_getc
                0x0000000020014d3c        0x8 drivers/serial/built-in.o
 .text.default_serial_console
                0x0000000020014d44       0x1c drivers/serial/built-in.o
                0x0000000020014d44                default_serial_console
 .text.s5p_serial_initialize
                0x0000000020014d60       0x38 drivers/serial/built-in.o
                0x0000000020014d60                s5p_serial_initialize
 .text.fs_probe_unsupported
                0x0000000020014d98       0x18 fs/built-in.o
 .text.fs_ls_unsupported
                0x0000000020014db0        0x8 fs/built-in.o
 .text.fs_exists_unsupported
                0x0000000020014db8        0x8 fs/built-in.o
 .text.fs_read_unsupported
                0x0000000020014dc0        0x8 fs/built-in.o
 .text.fs_write_unsupported
                0x0000000020014dc8        0x8 fs/built-in.o
 .text.fs_close_unsupported
                0x0000000020014dd0        0x4 fs/built-in.o
 .text.fs_get_info
                0x0000000020014dd4       0x20 fs/built-in.o
 .text.fs_close
                0x0000000020014df4       0x28 fs/built-in.o
 .text.fs_set_blk_dev
                0x0000000020014e1c       0xb8 fs/built-in.o
                0x0000000020014e1c                fs_set_blk_dev
 .text.fs_ls    0x0000000020014ed4       0x3c fs/built-in.o
                0x0000000020014ed4                fs_ls
 .text.fs_exists
                0x0000000020014f10       0x34 fs/built-in.o
                0x0000000020014f10                fs_exists
 .text.fs_read  0x0000000020014f44       0x84 fs/built-in.o
                0x0000000020014f44                fs_read
 .text.do_load  0x0000000020014fc8      0x1c0 fs/built-in.o
                0x0000000020014fc8                do_load
 .text.do_ls    0x0000000020015188       0x68 fs/built-in.o
                0x0000000020015188                do_ls
 .text.file_exists
                0x00000000200151f0       0x2c fs/built-in.o
                0x00000000200151f0                file_exists
 .text.downcase
                0x000000002001521c       0x30 fs/built-in.o
 .text.disk_read
                0x000000002001524c       0x64 fs/built-in.o
 .text.dirdelim
                0x00000000200152b0       0x30 fs/built-in.o
 .text.get_fatent
                0x00000000200152e0      0x154 fs/built-in.o
 .text.mkcksum  0x0000000020015434       0x50 fs/built-in.o
 .text.get_cluster
                0x0000000020015484      0x170 fs/built-in.o
 .text.get_name
                0x00000000200155f4       0xac fs/built-in.o
 .text.read_bootsectandvi
                0x00000000200156a0      0x128 fs/built-in.o
 .text.slot2str
                0x00000000200157c8       0xbc fs/built-in.o
 .text.get_vfatname
                0x0000000020015884      0x1ac fs/built-in.o
 .text.fat_set_blk_dev
                0x0000000020015a30       0xcc fs/built-in.o
                0x0000000020015a30                fat_set_blk_dev
 .text.do_fat_read_at
                0x0000000020015afc      0xadc fs/built-in.o
                0x0000000020015afc                do_fat_read_at
 .text.do_fat_read
                0x00000000200165d8       0x2c fs/built-in.o
                0x00000000200165d8                do_fat_read
 .text.file_fat_detectfs
                0x0000000020016604       0x88 fs/built-in.o
                0x0000000020016604                file_fat_detectfs
 .text.file_fat_ls
                0x000000002001668c       0x10 fs/built-in.o
                0x000000002001668c                file_fat_ls
 .text.fat_exists
                0x000000002001669c       0x2c fs/built-in.o
                0x000000002001669c                fat_exists
 .text.file_fat_read_at
                0x00000000200166c8       0x4c fs/built-in.o
                0x00000000200166c8                file_fat_read_at
 .text.fat_read_file
                0x0000000020016714       0x3c fs/built-in.o
                0x0000000020016714                fat_read_file
 .text.fat_close
                0x0000000020016750        0x4 fs/built-in.o
                0x0000000020016750                fat_close
 .text.zcalloc  0x0000000020016754        0x8 lib/built-in.o
                0x0000000020016754                zcalloc
 .text.zcfree   0x000000002001675c        0x8 lib/built-in.o
                0x000000002001675c                zcfree
 .text.inflate_fast
                0x0000000020016764      0x590 lib/built-in.o
                0x0000000020016764                inflate_fast
 .text.inflate_table
                0x0000000020016cf4      0x548 lib/built-in.o
                0x0000000020016cf4                inflate_table
 .text.inflateReset
                0x000000002001723c       0x78 lib/built-in.o
                0x000000002001723c                inflateReset
 .text.inflateInit2_
                0x00000000200172b4      0x104 lib/built-in.o
                0x00000000200172b4                inflateInit2_
 .text.inflateEnd
                0x00000000200173b8       0x68 lib/built-in.o
                0x00000000200173b8                inflateEnd
 .text.adler32  0x0000000020017420      0x338 lib/built-in.o
                0x0000000020017420                adler32
 .text.inflate  0x0000000020017758     0x14f0 lib/built-in.o
                0x0000000020017758                inflate
 .text.cyg_crc16
                0x0000000020018c48       0x44 lib/built-in.o
                0x0000000020018c48                cyg_crc16
 .text.gzalloc  0x0000000020018c8c       0x10 lib/built-in.o
                0x0000000020018c8c                gzalloc
 .text.gzfree   0x0000000020018c9c        0x8 lib/built-in.o
                0x0000000020018c9c                gzfree
 .text.zunzip   0x0000000020018ca4      0x124 lib/built-in.o
                0x0000000020018ca4                zunzip
 .text.gunzip   0x0000000020018dc8       0xb8 lib/built-in.o
                0x0000000020018dc8                gunzip
 .text.lmb_add_region
                0x0000000020018e80      0x1a4 lib/built-in.o
 .text.lmb_init
                0x0000000020019024       0x28 lib/built-in.o
                0x0000000020019024                lmb_init
 .text.lmb_add  0x000000002001904c        0x4 lib/built-in.o
                0x000000002001904c                lmb_add
 .text.lmb_reserve
                0x0000000020019050        0x8 lib/built-in.o
                0x0000000020019050                lmb_reserve
 .text.lmb_overlaps_region
                0x0000000020019058       0x58 lib/built-in.o
                0x0000000020019058                lmb_overlaps_region
 .text.__lmb_alloc_base
                0x00000000200190b0      0x108 lib/built-in.o
                0x00000000200190b0                __lmb_alloc_base
 .text.lmb_alloc_base
                0x00000000200191b8       0x34 lib/built-in.o
                0x00000000200191b8                lmb_alloc_base
 .text.lmb_alloc
                0x00000000200191ec        0x8 lib/built-in.o
                0x00000000200191ec                lmb_alloc
 .text.__board_lmb_reserve
                0x00000000200191f4        0x4 lib/built-in.o
                0x00000000200191f4                board_lmb_reserve
                0x00000000200191f4                __board_lmb_reserve
 .text.string_to_ip
                0x00000000200191f8       0x60 lib/built-in.o
                0x00000000200191f8                string_to_ip
 .text.qsort    0x0000000020019258       0xdc lib/built-in.o
                0x0000000020019258                qsort
 .text.strmhz   0x0000000020019334       0x64 lib/built-in.o
                0x0000000020019334                strmhz
 .text.cmpkey   0x0000000020019398       0x14 lib/built-in.o
 .text._hdelete.isra.1
                0x00000000200193ac       0x50 lib/built-in.o
 .text.drop_var_from_set.part.2
                0x00000000200193fc       0x50 lib/built-in.o
 .text.match_string.isra.3
                0x000000002001944c       0x60 lib/built-in.o
 .text.hcreate_r
                0x00000000200194ac       0xb0 lib/built-in.o
                0x00000000200194ac                hcreate_r
 .text.hdestroy_r
                0x000000002001955c       0x78 lib/built-in.o
                0x000000002001955c                hdestroy_r
 .text.hsearch_r
                0x00000000200195d4      0x4dc lib/built-in.o
                0x00000000200195d4                hsearch_r
 .text.hdelete_r
                0x0000000020019ab0       0xd8 lib/built-in.o
                0x0000000020019ab0                hdelete_r
 .text.hexport_r
                0x0000000020019b88      0x310 lib/built-in.o
                0x0000000020019b88                hexport_r
 .text.himport_r
                0x0000000020019e98      0x34c lib/built-in.o
                0x0000000020019e98                himport_r
 .text.hwalk_r  0x000000002001a1e4       0x58 lib/built-in.o
                0x000000002001a1e4                hwalk_r
 .text.print_size
                0x000000002001a23c      0x130 lib/built-in.o
                0x000000002001a23c                print_size
 .text.print_buffer
                0x000000002001a36c      0x1b4 lib/built-in.o
                0x000000002001a36c                print_buffer
 .text.crc32_no_comp
                0x000000002001a520       0xd8 lib/built-in.o
                0x000000002001a520                crc32_no_comp
 .text.crc32    0x000000002001a5f8       0x14 lib/built-in.o
                0x000000002001a5f8                crc32
 .text.crc32_wd
                0x000000002001a60c        0x4 lib/built-in.o
                0x000000002001a60c                crc32_wd
 .text.__div64_32
                0x000000002001a610       0xd0 lib/built-in.o
                0x000000002001a610                __div64_32
 .text.hang     0x000000002001a6e0       0x1c lib/built-in.o
                0x000000002001a6e0                hang
 .text.skip_spaces
                0x000000002001a6fc       0x28 lib/built-in.o
                0x000000002001a6fc                skip_spaces
 .text.strim    0x000000002001a724       0x60 lib/built-in.o
                0x000000002001a724                strim
 .text.strcpy   0x000000002001a784       0x18 lib/built-in.o
                0x000000002001a784                strcpy
 .text.strncpy  0x000000002001a79c       0x24 lib/built-in.o
                0x000000002001a79c                strncpy
 .text.strcat   0x000000002001a7c0       0x30 lib/built-in.o
                0x000000002001a7c0                strcat
 .text.strncat  0x000000002001a7f0       0x54 lib/built-in.o
                0x000000002001a7f0                strncat
 .text.strcmp   0x000000002001a844       0x28 lib/built-in.o
                0x000000002001a844                strcmp
 .text.strncmp  0x000000002001a86c       0x3c lib/built-in.o
                0x000000002001a86c                strncmp
 .text.strchr   0x000000002001a8a8       0x2c lib/built-in.o
                0x000000002001a8a8                strchr
 .text.strlen   0x000000002001a8d4       0x20 lib/built-in.o
                0x000000002001a8d4                strlen
 .text.strnlen  0x000000002001a8f4       0x2c lib/built-in.o
                0x000000002001a8f4                strnlen
 .text.strdup   0x000000002001a920       0x40 lib/built-in.o
                0x000000002001a920                strdup
 .text.strpbrk  0x000000002001a960       0x3c lib/built-in.o
                0x000000002001a960                strpbrk
 .text.memset   0x000000002001a99c       0x5c lib/built-in.o
                0x000000002001a99c                memset
 .text.memcpy   0x000000002001a9f8       0x6c lib/built-in.o
                0x000000002001a9f8                memcpy
 .text.memmove  0x000000002001aa64       0x48 lib/built-in.o
                0x000000002001aa64                memmove
 .text.memcmp   0x000000002001aaac       0x30 lib/built-in.o
                0x000000002001aaac                memcmp
 .text.strstr   0x000000002001aadc       0x6c lib/built-in.o
                0x000000002001aadc                strstr
 .text.udelay   0x000000002001ab48       0x30 lib/built-in.o
                0x000000002001ab48                udelay
 .text.mdelay   0x000000002001ab78       0x24 lib/built-in.o
                0x000000002001ab78                mdelay
 .text.put_dec_trunc
                0x000000002001ab9c       0xd4 lib/built-in.o
 .text.put_dec  0x000000002001ac70      0x13c lib/built-in.o
 .text.string.isra.0
                0x000000002001adac       0x94 lib/built-in.o
 .text.number.isra.4
                0x000000002001ae40      0x250 lib/built-in.o
 .text.vsnprintf_internal.isra.6
                0x000000002001b090      0x5fc lib/built-in.o
 .text.simple_strtoul
                0x000000002001b68c       0xb8 lib/built-in.o
                0x000000002001b68c                simple_strtoul
 .text.strict_strtoul
                0x000000002001b744       0x78 lib/built-in.o
                0x000000002001b744                strict_strtoul
 .text.simple_strtol
                0x000000002001b7bc       0x28 lib/built-in.o
                0x000000002001b7bc                simple_strtol
 .text.simple_strtoull
                0x000000002001b7e4       0xdc lib/built-in.o
                0x000000002001b7e4                simple_strtoull
 .text.vsprintf
                0x000000002001b8c0        0x4 lib/built-in.o
                0x000000002001b8c0                vsprintf
 .text.sprintf  0x000000002001b8c4       0x28 lib/built-in.o
                0x000000002001b8c4                sprintf
 .text.panic    0x000000002001b8ec       0x44 lib/built-in.o
                0x000000002001b8ec                panic
 .text.simple_itoa
                0x000000002001b930       0x54 lib/built-in.o
                0x000000002001b930                simple_itoa
 .text.ArpInit  0x000000002001b984       0x50 net/built-in.o
                0x000000002001b984                ArpInit
 .text.arp_raw_request
                0x000000002001b9d4       0xc0 net/built-in.o
                0x000000002001b9d4                arp_raw_request
 .text.ArpRequest
                0x000000002001ba94       0x84 net/built-in.o
                0x000000002001ba94                ArpRequest
 .text.ArpTimeoutCheck
                0x000000002001bb18       0x80 net/built-in.o
                0x000000002001bb18                ArpTimeoutCheck
 .text.ArpReceive
                0x000000002001bb98      0x1fc net/built-in.o
                0x000000002001bb98                ArpReceive
 .text.BootpHandler
                0x000000002001bd94      0x360 net/built-in.o
 .text.BootpRequest
                0x000000002001c0f4      0x1f8 net/built-in.o
                0x000000002001c0f4                BootpRequest
 .text.BootpTimeout
                0x000000002001c2ec       0x44 net/built-in.o
 .text.__def_eth_init
                0x000000002001c330        0x8 net/built-in.o
                0x000000002001c330                cpu_eth_init
 .text.eth_current_changed
                0x000000002001c338       0x60 net/built-in.o
 .text.eth_parse_enetaddr
                0x000000002001c398       0x54 net/built-in.o
                0x000000002001c398                eth_parse_enetaddr
 .text.eth_getenv_enetaddr
                0x000000002001c3ec       0x5c net/built-in.o
                0x000000002001c3ec                eth_getenv_enetaddr
 .text.eth_setenv_enetaddr
                0x000000002001c448       0x34 net/built-in.o
                0x000000002001c448                eth_setenv_enetaddr
 .text.eth_getenv_enetaddr_by_index
                0x000000002001c47c       0x50 net/built-in.o
                0x000000002001c47c                eth_getenv_enetaddr_by_index
 .text.eth_get_dev_by_index
                0x000000002001c4cc       0x40 net/built-in.o
                0x000000002001c4cc                eth_get_dev_by_index
 .text.eth_get_dev_index
                0x000000002001c50c       0x1c net/built-in.o
                0x000000002001c50c                eth_get_dev_index
 .text.eth_write_hwaddr
                0x000000002001c528      0x1d8 net/built-in.o
                0x000000002001c528                eth_write_hwaddr
 .text.eth_register
                0x000000002001c700       0x7c net/built-in.o
                0x000000002001c700                eth_register
 .text.eth_initialize
                0x000000002001c77c      0x1c8 net/built-in.o
                0x000000002001c77c                eth_initialize
 .text.eth_halt
                0x000000002001c944       0x30 net/built-in.o
                0x000000002001c944                eth_halt
 .text.eth_send
                0x000000002001c974       0x38 net/built-in.o
                0x000000002001c974                eth_send
 .text.eth_rx   0x000000002001c9ac       0x24 net/built-in.o
                0x000000002001c9ac                eth_rx
 .text.eth_try_another
                0x000000002001c9d0       0x84 net/built-in.o
                0x000000002001c9d0                eth_try_another
 .text.eth_init
                0x000000002001ca54       0xd0 net/built-in.o
                0x000000002001ca54                eth_init
 .text.eth_set_current
                0x000000002001cb24       0xa4 net/built-in.o
                0x000000002001cb24                eth_set_current
 .text.eth_get_name
                0x000000002001cbc8       0x20 net/built-in.o
                0x000000002001cbc8                eth_get_name
 .text.startAgainTimeout
                0x000000002001cbe8       0x14 net/built-in.o
 .text.dummy_handler
                0x000000002001cbfc        0x4 net/built-in.o
 .text.net_clear_handlers
                0x000000002001cc00       0x34 net/built-in.o
 .text.net_auto_load
                0x000000002001cc34       0x64 net/built-in.o
                0x000000002001cc34                net_auto_load
 .text.NetStartAgain
                0x000000002001cc98      0x150 net/built-in.o
                0x000000002001cc98                NetStartAgain
 .text.net_set_udp_handler
                0x000000002001cde8       0x20 net/built-in.o
                0x000000002001cde8                net_set_udp_handler
 .text.net_get_arp_handler
                0x000000002001ce08       0x10 net/built-in.o
                0x000000002001ce08                net_get_arp_handler
 .text.NetSetTimeout
                0x000000002001ce18       0x5c net/built-in.o
                0x000000002001ce18                NetSetTimeout
 .text.NetCksum
                0x000000002001ce74       0x30 net/built-in.o
                0x000000002001ce74                NetCksum
 .text.NetCksumOk
                0x000000002001cea4       0x20 net/built-in.o
                0x000000002001cea4                NetCksumOk
 .text.NetReceive
                0x000000002001cec4      0x258 net/built-in.o
                0x000000002001cec4                NetReceive
 .text.NetEthHdrSize
                0x000000002001d11c       0x38 net/built-in.o
                0x000000002001d11c                NetEthHdrSize
 .text.NetSetEther
                0x000000002001d154       0x94 net/built-in.o
                0x000000002001d154                NetSetEther
 .text.net_update_ether
                0x000000002001d1e8       0x78 net/built-in.o
                0x000000002001d1e8                net_update_ether
 .text.net_set_ip_header
                0x000000002001d260       0x88 net/built-in.o
                0x000000002001d260                net_set_ip_header
 .text.net_set_udp_header
                0x000000002001d2e8       0x88 net/built-in.o
                0x000000002001d2e8                net_set_udp_header
 .text.NetSendUDPPacket
                0x000000002001d370      0x10c net/built-in.o
                0x000000002001d370                NetSendUDPPacket
 .text.copy_filename
                0x000000002001d47c       0x44 net/built-in.o
                0x000000002001d47c                copy_filename
 .text.on_bootfile
                0x000000002001d4c0       0x2c net/built-in.o
 .text.ip_to_string
                0x000000002001d4ec       0x38 net/built-in.o
                0x000000002001d4ec                ip_to_string
 .text.string_to_VLAN
                0x000000002001d524       0x44 net/built-in.o
                0x000000002001d524                string_to_VLAN
 .text.getenv_VLAN
                0x000000002001d568       0x10 net/built-in.o
                0x000000002001d568                getenv_VLAN
 .text.NetInitLoop
                0x000000002001d578       0xf0 net/built-in.o
 .text.net_init
                0x000000002001d668       0x70 net/built-in.o
                0x000000002001d668                net_init
 .text.NetLoop  0x000000002001d6d8      0x304 net/built-in.o
                0x000000002001d6d8                NetLoop
 .text.rpc_lookup_reply
                0x000000002001d9dc       0xb0 net/built-in.o
 .text.nfs_mount_reply
                0x000000002001da8c       0xa8 net/built-in.o
 .text.nfs_umountall_reply
                0x000000002001db34       0x98 net/built-in.o
 .text.nfs_lookup_reply
                0x000000002001dbcc       0x98 net/built-in.o
 .text.nfs_readlink_reply
                0x000000002001dc64       0xf8 net/built-in.o
 .text.basename
                0x000000002001dd5c       0x3c net/built-in.o
 .text.rpc_add_credentials
                0x000000002001dd98       0xb4 net/built-in.o
 .text.rpc_req  0x000000002001de4c       0xf8 net/built-in.o
 .text.nfs_mount_req
                0x000000002001df44       0x94 net/built-in.o
 .text.nfs_umountall_req
                0x000000002001dfd8       0x60 net/built-in.o
 .text.nfs_lookup_req
                0x000000002001e038       0xa8 net/built-in.o
 .text.nfs_read_req
                0x000000002001e0e0       0x78 net/built-in.o
 .text.nfs_readlink_req
                0x000000002001e158       0x58 net/built-in.o
 .text.nfs_read_reply.isra.0
                0x000000002001e1b0      0x138 net/built-in.o
 .text.NfsSend  0x000000002001e2e8      0x114 net/built-in.o
 .text.NfsHandler
                0x000000002001e3fc      0x224 net/built-in.o
 .text.NfsTimeout
                0x000000002001e620       0x64 net/built-in.o
 .text.NfsStart
                0x000000002001e684      0x254 net/built-in.o
                0x000000002001e684                NfsStart
 .text.TftpSend
                0x000000002001e8d8      0x1c8 net/built-in.o
 .text.TftpHandler
                0x000000002001eaa0      0x378 net/built-in.o
 .text.TftpTimeout
                0x000000002001ee18       0x88 net/built-in.o
 .text.TftpStart
                0x000000002001eea0      0x33c net/built-in.o
                0x000000002001eea0                TftpStart
 .text.raise    0x000000002001f1dc       0x1c arch/arm/lib/eabi_compat.o
                0x000000002001f1dc                raise
 .text          0x000000002001f1f8       0xc8 /usr/local/arm-cortex_a8-linux-gnueabi/lib/gcc/arm-cortex_a8-linux-gnueabi/4.9.4/libgcc.a(_udivsi3.o)
                0x000000002001f1f8                __udivsi3
                0x000000002001f1f8                __aeabi_uidiv
                0x000000002001f2a0                __aeabi_uidivmod
 .text          0x000000002001f2c0       0xfc /usr/local/arm-cortex_a8-linux-gnueabi/lib/gcc/arm-cortex_a8-linux-gnueabi/4.9.4/libgcc.a(_divsi3.o)
                0x000000002001f2c0                __aeabi_idiv
                0x000000002001f2c0                __divsi3
                0x000000002001f39c                __aeabi_idivmod
 .text          0x000000002001f3bc       0x1c /usr/local/arm-cortex_a8-linux-gnueabi/lib/gcc/arm-cortex_a8-linux-gnueabi/4.9.4/libgcc.a(_lshrdi3.o)
                0x000000002001f3bc                __aeabi_llsr
                0x000000002001f3bc                __lshrdi3
 .text          0x000000002001f3d8       0x1c /usr/local/arm-cortex_a8-linux-gnueabi/lib/gcc/arm-cortex_a8-linux-gnueabi/4.9.4/libgcc.a(_ashrdi3.o)
                0x000000002001f3d8                __ashrdi3
                0x000000002001f3d8                __aeabi_lasr
 .text          0x000000002001f3f4       0x1c /usr/local/arm-cortex_a8-linux-gnueabi/lib/gcc/arm-cortex_a8-linux-gnueabi/4.9.4/libgcc.a(_ashldi3.o)
                0x000000002001f3f4                __ashldi3
                0x000000002001f3f4                __aeabi_llsl
 .text          0x000000002001f410       0x10 /usr/local/arm-cortex_a8-linux-gnueabi/lib/gcc/arm-cortex_a8-linux-gnueabi/4.9.4/libgcc.a(_dvmd_lnx.o)
                0x000000002001f410                __aeabi_ldiv0
                0x000000002001f410                __aeabi_idiv0

.glue_7         0x000000002001f420        0x0
 .glue_7        0x000000002001f420        0x0 linker stubs

.glue_7t        0x000000002001f420        0x0
 .glue_7t       0x000000002001f420        0x0 linker stubs

.vfp11_veneer   0x000000002001f420        0x0
 .vfp11_veneer  0x000000002001f420        0x0 linker stubs

.v4_bx          0x000000002001f420        0x0
 .v4_bx         0x000000002001f420        0x0 linker stubs

.iplt           0x000000002001f420        0x0
 .iplt          0x000000002001f420        0x0 arch/arm/cpu/armv7/start.o
                0x000000002001f420                . = ALIGN (0x4)

.rodata         0x000000002001f420     0x7e3b
 *(SORT(.rodata*))
 .rodata        0x000000002001f420       0x80 arch/arm/lib/built-in.o
 .rodata.CSWTCH.28
                0x000000002001f4a0       0x20 common/built-in.o
 .rodata.boot_os
                0x000000002001f4c0       0x60 common/built-in.o
 .rodata.chip_ids
                0x000000002001f520       0x68 drivers/net/built-in.o
 .rodata.crc_table
                0x000000002001f588      0x400 lib/built-in.o
 .rodata.env_flags_varaccess_mask
                0x000000002001f988       0x10 common/built-in.o
 .rodata.op_adv
                0x000000002001f998      0x100 common/built-in.o
                0x000000002001f998                op_adv
 .rodata.op_table
                0x000000002001fa98       0x68 common/built-in.o
 .rodata.udivslot
                0x000000002001fb00       0x40 drivers/serial/built-in.o
 .rodata.uimage_arch
                0x000000002001fb40      0x120 common/built-in.o
 .rodata.uimage_comp
                0x000000002001fc60       0x48 common/built-in.o
 .rodata.uimage_os
                0x000000002001fca8       0x78 common/built-in.o
 .rodata.uimage_type
                0x000000002001fd20       0xd8 common/built-in.o
 .rodata.CSWTCH.47
                0x000000002001fdf8       0x10 drivers/mtd/onenand/built-in.o
 .rodata.crc16_tab
                0x000000002001fe08      0x200 lib/built-in.o
 .rodata.dbase.6643
                0x0000000020020008       0x40 lib/built-in.o
 .rodata.dext.6644
                0x0000000020020048       0x40 lib/built-in.o
 .rodata.distfix
                0x0000000020020088       0x80 lib/built-in.o
 .rodata.ffchars
                0x0000000020020108       0x80 drivers/mtd/onenand/built-in.o
 .rodata.lbase.6641
                0x0000000020020188       0x3e lib/built-in.o
 .rodata.lenfix
                0x00000000200201c6      0x800 lib/built-in.o
 .rodata.lext.6642
                0x00000000200209c6       0x3e lib/built-in.o
 .rodata.order.6737
                0x0000000020020a04       0x26 lib/built-in.o
 .rodata        0x0000000020020a2a        0x3 common/built-in.o
 .rodata        0x0000000020020a2d        0xe net/built-in.o
 .rodata.CSWTCH.23
                0x0000000020020a3b       0x16 common/built-in.o
 .rodata.__func__.6473
                0x0000000020020a51       0x10 common/built-in.o
 .rodata.__func__.6484
                0x0000000020020a61        0xb common/built-in.o
 .rodata.__func__.6653
                0x0000000020020a6c        0xe common/built-in.o
 .rodata.__func__.6687
                0x0000000020020a7a        0xe common/built-in.o
 .rodata.__func__.6965
                0x0000000020020a88        0x8 common/built-in.o
 .rodata.__func__.7002
                0x0000000020020a90       0x11 drivers/mtd/onenand/built-in.o
 .rodata._ctype
                0x0000000020020aa1      0x100 lib/built-in.o
                0x0000000020020aa1                _ctype
 .rodata.default_environment
                0x0000000020020ba1      0x79f common/built-in.o
                0x0000000020020ba1                default_environment
 .rodata.delims.6352
                0x0000000020021340        0x3 common/built-in.o
 .rodata.digits.6356
                0x0000000020021343       0x10 lib/built-in.o
 .rodata.env_flags_varaccess_rep
                0x0000000020021353        0x5 common/built-in.o
 .rodata.env_flags_vartype_rep
                0x0000000020021358        0x7 common/built-in.o
 .rodata.erase_seq
                0x000000002002135f        0x4 common/built-in.o
 .rodata.hex_asc
                0x0000000020021363       0x11 lib/built-in.o
 .rodata.names.6256
                0x0000000020021374        0x6 lib/built-in.o
 .rodata.str1.1
                0x000000002002137a       0x7a arch/arm/cpu/armv7/built-in.o
 .rodata.str1.1
                0x00000000200213f4       0x16 arch/arm/cpu/armv7/s5pc1xx/built-in.o
 .rodata.str1.1
                0x000000002002140a      0x329 arch/arm/lib/built-in.o
                                        0x347 (size before relaxing)
 .rodata.str1.1
                0x0000000020021733       0x11 board/samsung/smdkv210/built-in.o
 .rodata.str1.1
                0x0000000020021744     0x3eb7 common/built-in.o
                                       0x42aa (size before relaxing)
 .rodata.str1.1
                0x00000000200255fb      0x11b disk/built-in.o
                                        0x124 (size before relaxing)
 .rodata.str1.1
                0x0000000020025716      0x1ee drivers/mtd/built-in.o
 .rodata.str1.1
                0x0000000020025904      0x92e drivers/mtd/onenand/built-in.o
                                        0x94d (size before relaxing)
 .rodata.str1.1
                0x0000000020026232      0x214 drivers/net/built-in.o
                                        0x215 (size before relaxing)
 .rodata.str1.1
                0x0000000020026446       0x57 drivers/serial/built-in.o
                                         0x92 (size before relaxing)
 .rodata.str1.1
                0x000000002002649d      0x267 fs/built-in.o
                                        0x2a7 (size before relaxing)
 .rodata.str1.1
                0x0000000020026704      0x456 lib/built-in.o
                                        0x470 (size before relaxing)
 .rodata.str1.1
                0x0000000020026b5a      0x6a8 net/built-in.o
                                        0x834 (size before relaxing)
 .rodata.str1.1
                0x0000000020027202       0x1b arch/arm/lib/eabi_compat.o
 .rodata.tab_seq
                0x000000002002721d        0x9 common/built-in.o
 .rodata.version_string
                0x0000000020027226       0x35 common/built-in.o
                0x0000000020027226                version_string

.hash           0x000000002002725c       0x18
 .hash          0x000000002002725c       0x18 arch/arm/cpu/armv7/start.o
                0x0000000020027274                . = ALIGN (0x4)

.data           0x0000000020027274     0x33ce
 *(.data*)
 .data.rel.ro   0x0000000020027274        0x0 arch/arm/cpu/armv7/start.o
 .data.s5p_cpu_id
                0x0000000020027274        0x4 arch/arm/cpu/armv7/built-in.o
                0x0000000020027274                s5p_cpu_id
 .data.s5p_cpu_rev
                0x0000000020027278        0x4 arch/arm/cpu/armv7/built-in.o
                0x0000000020027278                s5p_cpu_rev
 .data.init_sequence
                0x000000002002727c       0x30 arch/arm/lib/built-in.o
                0x000000002002727c                init_sequence
 .data.hist_cur
                0x00000000200272ac        0x4 common/built-in.o
 .data.reserved_list
                0x00000000200272b0       0x84 common/built-in.o
 .data.bootm_help_text
                0x0000000020027334      0x245 common/built-in.o
 *fill*         0x0000000020027579        0x3 
 .data.cmd_bootm_sub
                0x000000002002757c       0xc0 common/built-in.o
 .data.first_call
                0x000000002002763c        0x8 common/built-in.o
 .data.env_name_spec
                0x0000000020027644        0x4 common/built-in.o
                0x0000000020027644                env_name_spec
 .data.source_help_text
                0x0000000020027648       0x4e common/built-in.o
 *fill*         0x0000000020027696        0x2 
 .data.do_echo  0x0000000020027698        0x4 common/built-in.o
 .data.dp_last_length
                0x000000002002769c        0x4 common/built-in.o
 .data.mtdparts_help_text
                0x00000000200276a0      0x4d3 common/built-in.o
 *fill*         0x0000000020027b73        0x1 
 .data.cmd_onenand_sub
                0x0000000020027b74       0xd8 common/built-in.o
 .data.imgextract_help_text
                0x0000000020027c4c       0x55 common/built-in.o
 .data.env_help_text
                0x0000000020027ca1      0x218 common/built-in.o
 *fill*         0x0000000020027eb9        0x3 
 .data.env_id   0x0000000020027ebc        0x4 common/built-in.o
 .data.cmd_env_sub
                0x0000000020027ec0       0xd8 common/built-in.o
 .data.env_htab
                0x0000000020027f98       0x10 common/built-in.o
                0x0000000020027f98                env_htab
 .data.av_      0x0000000020027fa8      0x408 common/built-in.o
 .data.sbrk_base
                0x00000000200283b0        0x4 common/built-in.o
 .data.trim_threshold
                0x00000000200283b4        0x4 common/built-in.o
 .data.load_addr
                0x00000000200283b8        0x4 common/built-in.o
                0x00000000200283b8                load_addr
 .data.stdio_names
                0x00000000200283bc        0xc common/built-in.o
                0x00000000200283bc                stdio_names
 .data.dev_name
                0x00000000200283c8        0x9 drivers/mtd/onenand/built-in.o
 *fill*         0x00000000200283d1        0x3 
 .data.onenand_oob_128
                0x00000000200283d4      0xb08 drivers/mtd/onenand/built-in.o
 .data.onenand_oob_64
                0x0000000020028edc      0xb08 drivers/mtd/onenand/built-in.o
 .data.onenand_oob_32
                0x00000000200299e4      0xb08 drivers/mtd/onenand/built-in.o
 .data.largepage_memorybased
                0x000000002002a4ec       0x24 drivers/mtd/onenand/built-in.o
 .data.scan_ff_pattern
                0x000000002002a510        0x2 drivers/mtd/onenand/built-in.o
 *fill*         0x000000002002a512        0x2 
 .data          0x000000002002a514        0x8 drivers/serial/built-in.o
                0x000000002002a514                config
 .data.s5p_serial1_device
                0x000000002002a51c       0x30 drivers/serial/built-in.o
                0x000000002002a51c                s5p_serial1_device
 .data.s5p_serial0_device
                0x000000002002a54c       0x30 drivers/serial/built-in.o
                0x000000002002a54c                s5p_serial0_device
 .data.s5p_serial2_device
                0x000000002002a57c       0x30 drivers/serial/built-in.o
                0x000000002002a57c                s5p_serial2_device
 .data.s5p_serial3_device
                0x000000002002a5ac       0x30 drivers/serial/built-in.o
                0x000000002002a5ac                s5p_serial3_device
 .data.fstypes  0x000000002002a5dc       0x40 fs/built-in.o
 .data.first_call.6535
                0x000000002002a61c        0x4 net/built-in.o
 .data.NetOurNativeVLAN
                0x000000002002a620        0x2 net/built-in.o
                0x000000002002a620                NetOurNativeVLAN
 .data.NetBcastAddr
                0x000000002002a622        0x6 net/built-in.o
                0x000000002002a622                NetBcastAddr
 .data.NetOurVLAN
                0x000000002002a628        0x2 net/built-in.o
                0x000000002002a628                NetOurVLAN
 *fill*         0x000000002002a62a        0x2 
 .data.nfs_offset
                0x000000002002a62c        0x4 net/built-in.o
 .data.TftpTimeoutCountMax
                0x000000002002a630        0x4 net/built-in.o
 .data.TftpRRQTimeoutCountMax
                0x000000002002a634        0x4 net/built-in.o
                0x000000002002a634                TftpRRQTimeoutCountMax
 .data.TftpBlkSizeOption
                0x000000002002a638        0x2 net/built-in.o
 *fill*         0x000000002002a63a        0x2 
 .data.TftpTimeoutMSecs
                0x000000002002a63c        0x4 net/built-in.o
 .data.TftpBlkSize
                0x000000002002a640        0x2 net/built-in.o

.got            0x000000002002a644        0x0
 .got           0x000000002002a644        0x0 arch/arm/cpu/armv7/start.o

.got.plt        0x000000002002a644        0xc
 .got.plt       0x000000002002a644        0xc arch/arm/cpu/armv7/start.o
                0x000000002002a644                _GLOBAL_OFFSET_TABLE_

.igot.plt       0x000000002002a650        0x0
 .igot.plt      0x000000002002a650        0x0 arch/arm/cpu/armv7/start.o
                0x000000002002a650                . = ALIGN (0x4)
                0x000000002002a650                . = .
                0x000000002002a650                . = ALIGN (0x4)

.u_boot_list    0x000000002002a650      0x540
 *(SORT(.u_boot_list*))
 .u_boot_list_2_cmd_1
                0x000000002002a650        0x0 common/built-in.o
 .u_boot_list_2_cmd_2_base
                0x000000002002a650       0x18 common/built-in.o
                0x000000002002a650                _u_boot_list_2_cmd_2_base
 .u_boot_list_2_cmd_2_bdinfo
                0x000000002002a668       0x18 common/built-in.o
                0x000000002002a668                _u_boot_list_2_cmd_2_bdinfo
 .u_boot_list_2_cmd_2_boot
                0x000000002002a680       0x18 common/built-in.o
                0x000000002002a680                _u_boot_list_2_cmd_2_boot
 .u_boot_list_2_cmd_2_bootd
                0x000000002002a698       0x18 common/built-in.o
                0x000000002002a698                _u_boot_list_2_cmd_2_bootd
 .u_boot_list_2_cmd_2_bootelf
                0x000000002002a6b0       0x18 common/built-in.o
                0x000000002002a6b0                _u_boot_list_2_cmd_2_bootelf
 .u_boot_list_2_cmd_2_bootm
                0x000000002002a6c8       0x18 common/built-in.o
                0x000000002002a6c8                _u_boot_list_2_cmd_2_bootm
 .u_boot_list_2_cmd_2_bootp
                0x000000002002a6e0       0x18 common/built-in.o
                0x000000002002a6e0                _u_boot_list_2_cmd_2_bootp
 .u_boot_list_2_cmd_2_bootvx
                0x000000002002a6f8       0x18 common/built-in.o
                0x000000002002a6f8                _u_boot_list_2_cmd_2_bootvx
 .u_boot_list_2_cmd_2_chpart
                0x000000002002a710       0x18 common/built-in.o
                0x000000002002a710                _u_boot_list_2_cmd_2_chpart
 .u_boot_list_2_cmd_2_cmp
                0x000000002002a728       0x18 common/built-in.o
                0x000000002002a728                _u_boot_list_2_cmd_2_cmp
 .u_boot_list_2_cmd_2_coninfo
                0x000000002002a740       0x18 common/built-in.o
                0x000000002002a740                _u_boot_list_2_cmd_2_coninfo
 .u_boot_list_2_cmd_2_cp
                0x000000002002a758       0x18 common/built-in.o
                0x000000002002a758                _u_boot_list_2_cmd_2_cp
 .u_boot_list_2_cmd_2_crc32
                0x000000002002a770       0x18 common/built-in.o
                0x000000002002a770                _u_boot_list_2_cmd_2_crc32
 .u_boot_list_2_cmd_2_dcache
                0x000000002002a788       0x18 common/built-in.o
                0x000000002002a788                _u_boot_list_2_cmd_2_dcache
 .u_boot_list_2_cmd_2_echo
                0x000000002002a7a0       0x18 common/built-in.o
                0x000000002002a7a0                _u_boot_list_2_cmd_2_echo
 .u_boot_list_2_cmd_2_editenv
                0x000000002002a7b8       0x18 common/built-in.o
                0x000000002002a7b8                _u_boot_list_2_cmd_2_editenv
 .u_boot_list_2_cmd_2_env
                0x000000002002a7d0       0x18 common/built-in.o
                0x000000002002a7d0                _u_boot_list_2_cmd_2_env
 .u_boot_list_2_cmd_2_exit
                0x000000002002a7e8       0x18 common/built-in.o
                0x000000002002a7e8                _u_boot_list_2_cmd_2_exit
 .u_boot_list_2_cmd_2_false
                0x000000002002a800       0x18 common/built-in.o
                0x000000002002a800                _u_boot_list_2_cmd_2_false
 .u_boot_list_2_cmd_2_fatinfo
                0x000000002002a818       0x18 common/built-in.o
                0x000000002002a818                _u_boot_list_2_cmd_2_fatinfo
 .u_boot_list_2_cmd_2_fatload
                0x000000002002a830       0x18 common/built-in.o
                0x000000002002a830                _u_boot_list_2_cmd_2_fatload
 .u_boot_list_2_cmd_2_fatls
                0x000000002002a848       0x18 common/built-in.o
                0x000000002002a848                _u_boot_list_2_cmd_2_fatls
 .u_boot_list_2_cmd_2_go
                0x000000002002a860       0x18 common/built-in.o
                0x000000002002a860                _u_boot_list_2_cmd_2_go
 .u_boot_list_2_cmd_2_help
                0x000000002002a878       0x18 common/built-in.o
                0x000000002002a878                _u_boot_list_2_cmd_2_help
 .u_boot_list_2_cmd_2_icache
                0x000000002002a890       0x18 common/built-in.o
                0x000000002002a890                _u_boot_list_2_cmd_2_icache
 .u_boot_list_2_cmd_2_iminfo
                0x000000002002a8a8       0x18 common/built-in.o
                0x000000002002a8a8                _u_boot_list_2_cmd_2_iminfo
 .u_boot_list_2_cmd_2_imxtract
                0x000000002002a8c0       0x18 common/built-in.o
                0x000000002002a8c0                _u_boot_list_2_cmd_2_imxtract
 .u_boot_list_2_cmd_2_itest
                0x000000002002a8d8       0x18 common/built-in.o
                0x000000002002a8d8                _u_boot_list_2_cmd_2_itest
 .u_boot_list_2_cmd_2_loadb
                0x000000002002a8f0       0x18 common/built-in.o
                0x000000002002a8f0                _u_boot_list_2_cmd_2_loadb
 .u_boot_list_2_cmd_2_loads
                0x000000002002a908       0x18 common/built-in.o
                0x000000002002a908                _u_boot_list_2_cmd_2_loads
 .u_boot_list_2_cmd_2_loadx
                0x000000002002a920       0x18 common/built-in.o
                0x000000002002a920                _u_boot_list_2_cmd_2_loadx
 .u_boot_list_2_cmd_2_loady
                0x000000002002a938       0x18 common/built-in.o
                0x000000002002a938                _u_boot_list_2_cmd_2_loady
 .u_boot_list_2_cmd_2_loop
                0x000000002002a950       0x18 common/built-in.o
                0x000000002002a950                _u_boot_list_2_cmd_2_loop
 .u_boot_list_2_cmd_2_md
                0x000000002002a968       0x18 common/built-in.o
                0x000000002002a968                _u_boot_list_2_cmd_2_md
 .u_boot_list_2_cmd_2_mm
                0x000000002002a980       0x18 common/built-in.o
                0x000000002002a980                _u_boot_list_2_cmd_2_mm
 .u_boot_list_2_cmd_2_mtdparts
                0x000000002002a998       0x18 common/built-in.o
                0x000000002002a998                _u_boot_list_2_cmd_2_mtdparts
 .u_boot_list_2_cmd_2_mw
                0x000000002002a9b0       0x18 common/built-in.o
                0x000000002002a9b0                _u_boot_list_2_cmd_2_mw
 .u_boot_list_2_cmd_2_nfs
                0x000000002002a9c8       0x18 common/built-in.o
                0x000000002002a9c8                _u_boot_list_2_cmd_2_nfs
 .u_boot_list_2_cmd_2_nm
                0x000000002002a9e0       0x18 common/built-in.o
                0x000000002002a9e0                _u_boot_list_2_cmd_2_nm
 .u_boot_list_2_cmd_2_onenand
                0x000000002002a9f8       0x18 common/built-in.o
                0x000000002002a9f8                _u_boot_list_2_cmd_2_onenand
 .u_boot_list_2_cmd_2_printenv
                0x000000002002aa10       0x18 common/built-in.o
                0x000000002002aa10                _u_boot_list_2_cmd_2_printenv
 .u_boot_list_2_cmd_2_question_mark
                0x000000002002aa28       0x18 common/built-in.o
                0x000000002002aa28                _u_boot_list_2_cmd_2_question_mark
 .u_boot_list_2_cmd_2_reginfo
                0x000000002002aa40       0x18 common/built-in.o
                0x000000002002aa40                _u_boot_list_2_cmd_2_reginfo
 .u_boot_list_2_cmd_2_reset
                0x000000002002aa58       0x18 common/built-in.o
                0x000000002002aa58                _u_boot_list_2_cmd_2_reset
 .u_boot_list_2_cmd_2_run
                0x000000002002aa70       0x18 common/built-in.o
                0x000000002002aa70                _u_boot_list_2_cmd_2_run
 .u_boot_list_2_cmd_2_saveenv
                0x000000002002aa88       0x18 common/built-in.o
                0x000000002002aa88                _u_boot_list_2_cmd_2_saveenv
 .u_boot_list_2_cmd_2_setenv
                0x000000002002aaa0       0x18 common/built-in.o
                0x000000002002aaa0                _u_boot_list_2_cmd_2_setenv
 .u_boot_list_2_cmd_2_showvar
                0x000000002002aab8       0x18 common/built-in.o
                0x000000002002aab8                _u_boot_list_2_cmd_2_showvar
 .u_boot_list_2_cmd_2_sleep
                0x000000002002aad0       0x18 common/built-in.o
                0x000000002002aad0                _u_boot_list_2_cmd_2_sleep
 .u_boot_list_2_cmd_2_source
                0x000000002002aae8       0x18 common/built-in.o
                0x000000002002aae8                _u_boot_list_2_cmd_2_source
 .u_boot_list_2_cmd_2_test
                0x000000002002ab00       0x18 common/built-in.o
                0x000000002002ab00                _u_boot_list_2_cmd_2_test
 .u_boot_list_2_cmd_2_tftpboot
                0x000000002002ab18       0x18 common/built-in.o
                0x000000002002ab18                _u_boot_list_2_cmd_2_tftpboot
 .u_boot_list_2_cmd_2_true
                0x000000002002ab30       0x18 common/built-in.o
                0x000000002002ab30                _u_boot_list_2_cmd_2_true
 .u_boot_list_2_cmd_2_version
                0x000000002002ab48       0x18 common/built-in.o
                0x000000002002ab48                _u_boot_list_2_cmd_2_version
 .u_boot_list_2_cmd_3
                0x000000002002ab60        0x0 common/built-in.o
 .u_boot_list_2_env_clbk_1
                0x000000002002ab60        0x0 common/built-in.o
 .u_boot_list_2_env_clbk_2_baudrate
                0x000000002002ab60        0x8 drivers/serial/built-in.o
                0x000000002002ab60                _u_boot_list_2_env_clbk_2_baudrate
 .u_boot_list_2_env_clbk_2_bootfile
                0x000000002002ab68        0x8 net/built-in.o
                0x000000002002ab68                _u_boot_list_2_env_clbk_2_bootfile
 .u_boot_list_2_env_clbk_2_callbacks
                0x000000002002ab70        0x8 common/built-in.o
                0x000000002002ab70                _u_boot_list_2_env_clbk_2_callbacks
 .u_boot_list_2_env_clbk_2_console
                0x000000002002ab78        0x8 common/built-in.o
                0x000000002002ab78                _u_boot_list_2_env_clbk_2_console
 .u_boot_list_2_env_clbk_2_flags
                0x000000002002ab80        0x8 common/built-in.o
                0x000000002002ab80                _u_boot_list_2_env_clbk_2_flags
 .u_boot_list_2_env_clbk_2_loadaddr
                0x000000002002ab88        0x8 common/built-in.o
                0x000000002002ab88                _u_boot_list_2_env_clbk_2_loadaddr
 .u_boot_list_2_env_clbk_3
                0x000000002002ab90        0x0 common/built-in.o
                0x000000002002ab90                . = ALIGN (0x4)

.image_copy_end
                0x000000002002ab90        0x0
 *(.__image_copy_end)
 .__image_copy_end
                0x000000002002ab90        0x0 arch/arm/lib/built-in.o

.rel_dyn_start  0x000000002002ab90        0x0
 *(.__rel_dyn_start)
 .__rel_dyn_start
                0x000000002002ab90        0x0 arch/arm/lib/built-in.o

.rel.dyn        0x000000002002ab90     0x4ef8
 *(.rel*)
 .rel.got       0x000000002002ab90        0x0 arch/arm/cpu/armv7/start.o
 .rel.plt       0x000000002002ab90        0x0 arch/arm/cpu/armv7/start.o
 .rel.bss       0x000000002002ab90        0x0 arch/arm/cpu/armv7/start.o
 .rel.data.rel.ro
                0x000000002002ab90        0x0 arch/arm/cpu/armv7/start.o
 .rel.iplt      0x000000002002ab90        0x0 arch/arm/cpu/armv7/start.o
 .rel.text      0x000000002002ab90       0x78 arch/arm/cpu/armv7/start.o
 .rel.text.invalidate_dcache_range
                0x000000002002ac08        0x0 arch/arm/cpu/armv7/start.o
 .rel.text.arch_cpu_init
                0x000000002002ac08       0x10 arch/arm/cpu/armv7/start.o
 .rel.text.get_device_type
                0x000000002002ac18        0x0 arch/arm/cpu/armv7/start.o
 .rel.text.print_cpuinfo
                0x000000002002ac18       0x18 arch/arm/cpu/armv7/start.o
 .rel.text.timer_get_us_down
                0x000000002002ac30        0x8 arch/arm/cpu/armv7/start.o
 .rel.text.timer_get_us
                0x000000002002ac38        0x0 arch/arm/cpu/armv7/start.o
 .rel.text.reset_timer_masked
                0x000000002002ac38        0x8 arch/arm/cpu/armv7/start.o
 .rel.text.s5p_config_sromc
                0x000000002002ac40        0x8 arch/arm/cpu/armv7/start.o
 .rel.text.pwm_enable
                0x000000002002ac48        0x8 arch/arm/cpu/armv7/start.o
 .rel.text.pwm_disable
                0x000000002002ac50        0x0 arch/arm/cpu/armv7/start.o
 .rel.text.pwm_config
                0x000000002002ac50        0x8 arch/arm/cpu/armv7/start.o
 .rel.text.pwm_init
                0x000000002002ac58        0x8 arch/arm/cpu/armv7/start.o
 .rel.text.get_pll_clk
                0x000000002002ac60       0x58 arch/arm/cpu/armv7/start.o
 .rel.text.get_pclkd1
                0x000000002002acb8        0x8 arch/arm/cpu/armv7/start.o
 .rel.text.get_pclk_sys.constprop.1
                0x000000002002acc0        0x8 arch/arm/cpu/armv7/start.o
 .rel.text.get_arm_clk
                0x000000002002acc8        0x8 arch/arm/cpu/armv7/start.o
 .rel.text.get_pwm_clk
                0x000000002002acd0        0x8 arch/arm/cpu/armv7/start.o
 .rel.text.get_uart_clk
                0x000000002002acd8        0x8 arch/arm/cpu/armv7/start.o
 .rel.text.display_banner
                0x000000002002ace0       0x10 arch/arm/cpu/armv7/start.o
 .rel.text.init_baudrate
                0x000000002002acf0        0x8 arch/arm/cpu/armv7/start.o
 .rel.text.board_init_f
                0x000000002002acf8       0x30 arch/arm/cpu/armv7/start.o
 .rel.text.board_init_r
                0x000000002002ad28       0x30 arch/arm/cpu/armv7/start.o
 .rel.text.boot_jump_linux.isra.5
                0x000000002002ad58       0x28 arch/arm/cpu/armv7/start.o
 .rel.text.boot_prep_linux
                0x000000002002ad80       0x10 arch/arm/cpu/armv7/start.o
 .rel.text.interrupt_init
                0x000000002002ad90        0x8 arch/arm/cpu/armv7/start.o
 .rel.text.bad_mode
                0x000000002002ad98        0x8 arch/arm/cpu/armv7/start.o
 .rel.text.show_regs
                0x000000002002ada0       0x50 arch/arm/cpu/armv7/start.o
 .rel.text.do_undefined_instruction
                0x000000002002adf0        0x8 arch/arm/cpu/armv7/start.o
 .rel.text.do_software_interrupt
                0x000000002002adf8        0x8 arch/arm/cpu/armv7/start.o
 .rel.text.do_prefetch_abort
                0x000000002002ae00        0x8 arch/arm/cpu/armv7/start.o
 .rel.text.do_data_abort
                0x000000002002ae08        0x8 arch/arm/cpu/armv7/start.o
 .rel.text.do_not_used
                0x000000002002ae10        0x8 arch/arm/cpu/armv7/start.o
 .rel.text.do_fiq
                0x000000002002ae18        0x8 arch/arm/cpu/armv7/start.o
 .rel.text.do_irq
                0x000000002002ae20        0x8 arch/arm/cpu/armv7/start.o
 .rel.text.do_reset
                0x000000002002ae28        0x8 arch/arm/cpu/armv7/start.o
 .rel.text.__enable_caches
                0x000000002002ae30        0x8 arch/arm/cpu/armv7/start.o
 .rel.rodata    0x000000002002ae38      0x100 arch/arm/cpu/armv7/start.o
 .rel.data.init_sequence
                0x000000002002af38       0x58 arch/arm/cpu/armv7/start.o
 .rel.text.board_init
                0x000000002002af90        0x8 arch/arm/cpu/armv7/start.o
 .rel.text.checkboard
                0x000000002002af98        0x8 arch/arm/cpu/armv7/start.o
 .rel.text.onenand_board_init
                0x000000002002afa0        0x8 arch/arm/cpu/armv7/start.o
 .rel.text.delete_char.part.0
                0x000000002002afa8       0x10 arch/arm/cpu/armv7/start.o
 .rel.text.cread_add_char
                0x000000002002afb8        0x8 arch/arm/cpu/armv7/start.o
 .rel.text.readline_into_buffer
                0x000000002002afc0       0xa8 arch/arm/cpu/armv7/start.o
 .rel.text.readline
                0x000000002002b068        0x8 arch/arm/cpu/armv7/start.o
 .rel.text.parse_line
                0x000000002002b070        0x0 arch/arm/cpu/armv7/start.o
 .rel.text.main_loop
                0x000000002002b070       0x28 arch/arm/cpu/armv7/start.o
 .rel.text.do_run
                0x000000002002b098        0x8 arch/arm/cpu/armv7/start.o
 .rel.text.find_cmd
                0x000000002002b0a0       0x10 arch/arm/cpu/armv7/start.o
 .rel.text.cmd_usage
                0x000000002002b0b0       0x18 arch/arm/cpu/armv7/start.o
 .rel.text._do_help
                0x000000002002b0c8       0x10 arch/arm/cpu/armv7/start.o
 .rel.text.cmd_get_data_size
                0x000000002002b0d8        0x8 arch/arm/cpu/armv7/start.o
 .rel.text.cmd_process
                0x000000002002b0e0       0x18 arch/arm/cpu/armv7/start.o
 .rel.text.cmd_process_error
                0x000000002002b0f8        0x0 arch/arm/cpu/armv7/start.o
 .rel.text.jumptable_init
                0x000000002002b0f8       0x98 arch/arm/cpu/armv7/start.o
 .rel.text.hash_block
                0x000000002002b190        0x0 arch/arm/cpu/armv7/start.o
 .rel.text.hash_command
                0x000000002002b190        0x8 arch/arm/cpu/armv7/start.o
 .rel.text.mapset
                0x000000002002b198        0x8 arch/arm/cpu/armv7/start.o
 .rel.text.syntax_err
                0x000000002002b1a0        0x8 arch/arm/cpu/armv7/start.o
 .rel.text.xmalloc
                0x000000002002b1a8        0x8 arch/arm/cpu/armv7/start.o
 .rel.text.xrealloc
                0x000000002002b1b0        0x8 arch/arm/cpu/armv7/start.o
 .rel.text.done_word
                0x000000002002b1b8        0x8 arch/arm/cpu/armv7/start.o
 .rel.text.do_showvar
                0x000000002002b1c0       0x20 arch/arm/cpu/armv7/start.o
 .rel.text.is_assignment
                0x000000002002b1e0        0x8 arch/arm/cpu/armv7/start.o
 .rel.text.file_get
                0x000000002002b1e8       0x30 arch/arm/cpu/armv7/start.o
 .rel.text.b_addqchr
                0x000000002002b218        0x8 arch/arm/cpu/armv7/start.o
 .rel.text.get_local_var
                0x000000002002b220       0x20 arch/arm/cpu/armv7/start.o
 .rel.text.set_local_var
                0x000000002002b240       0x20 arch/arm/cpu/armv7/start.o
 .rel.text.insert_var_value_sub
                0x000000002002b260        0x8 arch/arm/cpu/armv7/start.o
 .rel.text.unset_local_var
                0x000000002002b268        0x0 arch/arm/cpu/armv7/start.o
 .rel.text.parse_string_outer
                0x000000002002b268       0x18 arch/arm/cpu/armv7/start.o
 .rel.text.run_list_real
                0x000000002002b280       0x40 arch/arm/cpu/armv7/start.o
 .rel.text.parse_stream_outer
                0x000000002002b2c0       0x60 arch/arm/cpu/armv7/start.o
 .rel.text.parse_file_outer
                0x000000002002b320       0x10 arch/arm/cpu/armv7/start.o
 .rel.text.u_boot_hush_start
                0x000000002002b330       0x18 arch/arm/cpu/armv7/start.o
 .rel.text.srec_decode
                0x000000002002b348       0x50 arch/arm/cpu/armv7/start.o
 .rel.text.xyzModem_get_hdr
                0x000000002002b398       0x30 arch/arm/cpu/armv7/start.o
 .rel.text.xyzModem_stream_open
                0x000000002002b3c8       0x10 arch/arm/cpu/armv7/start.o
 .rel.text.xyzModem_stream_read
                0x000000002002b3d8        0x8 arch/arm/cpu/armv7/start.o
 .rel.text.xyzModem_stream_close
                0x000000002002b3e0       0x20 arch/arm/cpu/armv7/start.o
 .rel.text.xyzModem_stream_terminate
                0x000000002002b400        0x8 arch/arm/cpu/armv7/start.o
 .rel.text.xyzModem_error
                0x000000002002b408       0x10 arch/arm/cpu/armv7/start.o
 .rel.text.do_go
                0x000000002002b418       0x10 arch/arm/cpu/armv7/start.o
 .rel.text.image_info
                0x000000002002b428       0x40 arch/arm/cpu/armv7/start.o
 .rel.text.do_bootd
                0x000000002002b468        0x8 arch/arm/cpu/armv7/start.o
 .rel.text.do_bootm_rtems
                0x000000002002b470        0x8 arch/arm/cpu/armv7/start.o
 .rel.text.do_bootm_plan9
                0x000000002002b478       0x18 arch/arm/cpu/armv7/start.o
 .rel.text.do_bootm_standalone
                0x000000002002b490       0x18 arch/arm/cpu/armv7/start.o
 .rel.text.do_bootm_qnxelf
                0x000000002002b4a8        0x8 arch/arm/cpu/armv7/start.o
 .rel.text.do_bootm_netbsd
                0x000000002002b4b0       0x18 arch/arm/cpu/armv7/start.o
 .rel.text.do_iminfo
                0x000000002002b4c8        0x8 arch/arm/cpu/armv7/start.o
 .rel.text.do_bootm_states.isra.21.constprop.22
                0x000000002002b4d0       0xf0 arch/arm/cpu/armv7/start.o
 .rel.text.do_bootm
                0x000000002002b5c0       0x18 arch/arm/cpu/armv7/start.o
 .rel.text.bootm_maybe_autostart
                0x000000002002b5d8       0x20 arch/arm/cpu/armv7/start.o
 .rel.text.do_bootvx_fdt
                0x000000002002b5f8       0x10 arch/arm/cpu/armv7/start.o
 .rel.text.do_help
                0x000000002002b608       0x10 arch/arm/cpu/armv7/start.o
 .rel.text.do_version
                0x000000002002b618       0x20 arch/arm/cpu/armv7/start.o
 .rel.text.env_attr_lookup
                0x000000002002b638        0x8 arch/arm/cpu/armv7/start.o
 .rel.text.find_env_callback
                0x000000002002b640       0x10 arch/arm/cpu/armv7/start.o
 .rel.text.on_callbacks
                0x000000002002b650       0x20 arch/arm/cpu/armv7/start.o
 .rel.text.set_callback
                0x000000002002b670        0x8 arch/arm/cpu/armv7/start.o
 .rel.text.env_callback_init
                0x000000002002b678       0x20 arch/arm/cpu/armv7/start.o
 .rel.text.skip_num
                0x000000002002b698        0x8 arch/arm/cpu/armv7/start.o
 .rel.text.on_flags
                0x000000002002b6a0       0x20 arch/arm/cpu/armv7/start.o
 .rel.text.env_flags_parse_vartype
                0x000000002002b6c0       0x10 arch/arm/cpu/armv7/start.o
 .rel.text.env_flags_parse_varaccess
                0x000000002002b6d0       0x10 arch/arm/cpu/armv7/start.o
 .rel.text.set_flags
                0x000000002002b6e0       0x10 arch/arm/cpu/armv7/start.o
 .rel.text.env_flags_init
                0x000000002002b6f0       0x30 arch/arm/cpu/armv7/start.o
 .rel.text.env_flags_validate
                0x000000002002b720       0x68 arch/arm/cpu/armv7/start.o
 .rel.text.env_relocate_spec
                0x000000002002b788        0x8 arch/arm/cpu/armv7/start.o
 .rel.text.saveenv
                0x000000002002b790       0x40 arch/arm/cpu/armv7/start.o
 .rel.text.env_init
                0x000000002002b7d0        0x8 arch/arm/cpu/armv7/start.o
 .rel.text.source
                0x000000002002b7d8       0x38 arch/arm/cpu/armv7/start.o
 .rel.text.do_source
                0x000000002002b810        0x8 arch/arm/cpu/armv7/start.o
 .rel.text.print_num
                0x000000002002b818        0x8 arch/arm/cpu/armv7/start.o
 .rel.text.do_bdinfo
                0x000000002002b820       0x98 arch/arm/cpu/armv7/start.o
 .rel.text.parse_argv
                0x000000002002b8b8       0x18 arch/arm/cpu/armv7/start.o
 .rel.text.invalidate_icache_all
                0x000000002002b8d0        0x0 arch/arm/cpu/armv7/start.o
 .rel.text.do_icache
                0x000000002002b8d0       0x18 arch/arm/cpu/armv7/start.o
 .rel.text.flush_dcache_all
                0x000000002002b8e8        0x0 arch/arm/cpu/armv7/start.o
 .rel.text.do_dcache
                0x000000002002b8e8       0x18 arch/arm/cpu/armv7/start.o
 .rel.text.do_coninfo
                0x000000002002b900       0x28 arch/arm/cpu/armv7/start.o
 .rel.text.do_echo
                0x000000002002b928        0x8 arch/arm/cpu/armv7/start.o
 .rel.text.valid_elf_image
                0x000000002002b930       0x10 arch/arm/cpu/armv7/start.o
 .rel.text.do_bootelf
                0x000000002002b940       0x18 arch/arm/cpu/armv7/start.o
 .rel.text.do_bootvx
                0x000000002002b958       0xa8 arch/arm/cpu/armv7/start.o
 .rel.text.do_fat_fsinfo
                0x000000002002ba00       0x10 arch/arm/cpu/armv7/start.o
 .rel.text.binary_test
                0x000000002002ba10       0x70 arch/arm/cpu/armv7/start.o
 .rel.text.do_itest
                0x000000002002ba80       0x40 arch/arm/cpu/armv7/start.o
 .rel.text.bin_data_init
                0x000000002002bac0       0x18 arch/arm/cpu/armv7/start.o
 .rel.text.k_data_save
                0x000000002002bad8       0x30 arch/arm/cpu/armv7/start.o
 .rel.text.k_data_restore
                0x000000002002bb08       0x30 arch/arm/cpu/armv7/start.o
 .rel.text.load_serial_ymodem
                0x000000002002bb38       0x20 arch/arm/cpu/armv7/start.o
 .rel.text.bin_data_char
                0x000000002002bb58       0x10 arch/arm/cpu/armv7/start.o
 .rel.text.chk1.constprop.1
                0x000000002002bb68        0x8 arch/arm/cpu/armv7/start.o
 .rel.text.s1_sendpacket.constprop.2
                0x000000002002bb70       0x18 arch/arm/cpu/armv7/start.o
 .rel.text.load_serial
                0x000000002002bb88       0x68 arch/arm/cpu/armv7/start.o
 .rel.text.do_load_serial
                0x000000002002bbf0       0x30 arch/arm/cpu/armv7/start.o
 .rel.text.do_load_serial_bin
                0x000000002002bc20       0xe8 arch/arm/cpu/armv7/start.o
 .rel.text.do_mem_mw
                0x000000002002bd08        0x8 arch/arm/cpu/armv7/start.o
 .rel.text.do_mem_md
                0x000000002002bd10       0x20 arch/arm/cpu/armv7/start.o
 .rel.text.do_mem_cmp
                0x000000002002bd30       0x38 arch/arm/cpu/armv7/start.o
 .rel.text.do_mem_base
                0x000000002002bd68       0x10 arch/arm/cpu/armv7/start.o
 .rel.text.do_mem_cp
                0x000000002002bd78       0x10 arch/arm/cpu/armv7/start.o
 .rel.text.do_mem_crc
                0x000000002002bd88        0x8 arch/arm/cpu/armv7/start.o
 .rel.text.mod_mem.isra.2
                0x000000002002bd90       0x48 arch/arm/cpu/armv7/start.o
 .rel.text.mtd_part_info
                0x000000002002bdd8       0x20 arch/arm/cpu/armv7/start.o
 .rel.text.memsize_format
                0x000000002002bdf8       0x20 arch/arm/cpu/armv7/start.o
 .rel.text.index_partitions
                0x000000002002be18       0x28 arch/arm/cpu/armv7/start.o
 .rel.text.current_save
                0x000000002002be40       0x40 arch/arm/cpu/armv7/start.o
 .rel.text.part_sort_add
                0x000000002002be80       0x18 arch/arm/cpu/armv7/start.o
 .rel.text.device_del
                0x000000002002be98       0x18 arch/arm/cpu/armv7/start.o
 .rel.text.generate_mtdparts_save.constprop.7
                0x000000002002beb0       0x28 arch/arm/cpu/armv7/start.o
 .rel.text.device_delall.constprop.9
                0x000000002002bed8        0x8 arch/arm/cpu/armv7/start.o
 .rel.text.mtd_devices_init
                0x000000002002bee0       0x10 arch/arm/cpu/armv7/start.o
 .rel.text.get_mtd_info.constprop.10
                0x000000002002bef0       0x28 arch/arm/cpu/armv7/start.o
 .rel.text.part_validate
                0x000000002002bf18       0x48 arch/arm/cpu/armv7/start.o
 .rel.text.device_find
                0x000000002002bf60        0x8 arch/arm/cpu/armv7/start.o
 .rel.text.device_parse
                0x000000002002bf68       0x80 arch/arm/cpu/armv7/start.o
 .rel.text.mtd_id_parse
                0x000000002002bfe8       0x30 arch/arm/cpu/armv7/start.o
 .rel.text.find_dev_and_part
                0x000000002002c018       0x40 arch/arm/cpu/armv7/start.o
 .rel.text.mtdparts_init
                0x000000002002c058       0xd8 arch/arm/cpu/armv7/start.o
 .rel.text.do_chpart
                0x000000002002c130       0x38 arch/arm/cpu/armv7/start.o
 .rel.text.do_mtdparts
                0x000000002002c168      0x108 arch/arm/cpu/armv7/start.o
 .rel.text.netboot_common
                0x000000002002c270       0x98 arch/arm/cpu/armv7/start.o
 .rel.text.do_onenand
                0x000000002002c308       0x18 arch/arm/cpu/armv7/start.o
 .rel.text.do_onenand_markbad
                0x000000002002c320       0x18 arch/arm/cpu/armv7/start.o
 .rel.text.do_onenand_info
                0x000000002002c338       0x10 arch/arm/cpu/armv7/start.o
 .rel.text.arg_off_size
                0x000000002002c348       0x28 arch/arm/cpu/armv7/start.o
 .rel.text.onenand_dump
                0x000000002002c370       0x30 arch/arm/cpu/armv7/start.o
 .rel.text.do_onenand_dump
                0x000000002002c3a0       0x10 arch/arm/cpu/armv7/start.o
 .rel.text.do_onenand_read
                0x000000002002c3b0       0x38 arch/arm/cpu/armv7/start.o
 .rel.text.do_onenand_bad
                0x000000002002c3e8       0x20 arch/arm/cpu/armv7/start.o
 .rel.text.do_onenand_test
                0x000000002002c408       0x68 arch/arm/cpu/armv7/start.o
 .rel.text.do_onenand_write
                0x000000002002c470       0x48 arch/arm/cpu/armv7/start.o
 .rel.text.do_onenand_erase
                0x000000002002c4b8       0x30 arch/arm/cpu/armv7/start.o
 .rel.text.do_test
                0x000000002002c4e8       0x70 arch/arm/cpu/armv7/start.o
 .rel.text.do_imgextract
                0x000000002002c558       0x90 arch/arm/cpu/armv7/start.o
 .rel.text.do_env_delete
                0x000000002002c5e8       0x10 arch/arm/cpu/armv7/start.o
 .rel.text.do_env_save
                0x000000002002c5f8       0x10 arch/arm/cpu/armv7/start.o
 .rel.text.do_env
                0x000000002002c608        0x8 arch/arm/cpu/armv7/start.o
 .rel.text.env_print
                0x000000002002c610       0x18 arch/arm/cpu/armv7/start.o
 .rel.text.do_env_print
                0x000000002002c628       0x10 arch/arm/cpu/armv7/start.o
 .rel.text.do_env_import
                0x000000002002c638       0x58 arch/arm/cpu/armv7/start.o
 .rel.text.do_env_default
                0x000000002002c690        0x8 arch/arm/cpu/armv7/start.o
 .rel.text._do_env_set.isra.0
                0x000000002002c698       0x30 arch/arm/cpu/armv7/start.o
 .rel.text.get_env_id
                0x000000002002c6c8        0x8 arch/arm/cpu/armv7/start.o
 .rel.text.setenv
                0x000000002002c6d0        0x8 arch/arm/cpu/armv7/start.o
 .rel.text.setenv_hex
                0x000000002002c6d8        0x8 arch/arm/cpu/armv7/start.o
 .rel.text.do_env_export
                0x000000002002c6e0       0x40 arch/arm/cpu/armv7/start.o
 .rel.text.getenv_f
                0x000000002002c720        0x8 arch/arm/cpu/armv7/start.o
 .rel.text.getenv
                0x000000002002c728        0x8 arch/arm/cpu/armv7/start.o
 .rel.text.do_env_edit
                0x000000002002c730       0x10 arch/arm/cpu/armv7/start.o
 .rel.text.env_get_addr
                0x000000002002c740        0x8 arch/arm/cpu/armv7/start.o
 .rel.text.env_get_char
                0x000000002002c748        0x8 arch/arm/cpu/armv7/start.o
 .rel.text.set_default_env
                0x000000002002c750       0x40 arch/arm/cpu/armv7/start.o
 .rel.text.set_default_vars
                0x000000002002c790       0x10 arch/arm/cpu/armv7/start.o
 .rel.text.env_import
                0x000000002002c7a0       0x38 arch/arm/cpu/armv7/start.o
 .rel.text.env_relocate
                0x000000002002c7d8        0x8 arch/arm/cpu/armv7/start.o
 .rel.text.console_setfile
                0x000000002002c7e0       0x10 arch/arm/cpu/armv7/start.o
 .rel.text.fgetc
                0x000000002002c7f0        0x8 arch/arm/cpu/armv7/start.o
 .rel.text.ftstc
                0x000000002002c7f8        0x8 arch/arm/cpu/armv7/start.o
 .rel.text.fputc
                0x000000002002c800        0x0 arch/arm/cpu/armv7/start.o
 .rel.text.fputs
                0x000000002002c800        0x0 arch/arm/cpu/armv7/start.o
 .rel.text.putc
                0x000000002002c800        0x8 arch/arm/cpu/armv7/start.o
 .rel.text.puts
                0x000000002002c808        0x8 arch/arm/cpu/armv7/start.o
 .rel.text.ctrlc
                0x000000002002c810       0x10 arch/arm/cpu/armv7/start.o
 .rel.text.disable_ctrlc
                0x000000002002c820        0x0 arch/arm/cpu/armv7/start.o
 .rel.text.had_ctrlc
                0x000000002002c820        0x8 arch/arm/cpu/armv7/start.o
 .rel.text.clear_ctrlc
                0x000000002002c828        0x8 arch/arm/cpu/armv7/start.o
 .rel.text.on_console
                0x000000002002c830       0x20 arch/arm/cpu/armv7/start.o
 .rel.text.stdio_print_current_devices
                0x000000002002c850       0x40 arch/arm/cpu/armv7/start.o
 .rel.text.console_init_r
                0x000000002002c890       0x10 arch/arm/cpu/armv7/start.o
 .rel.text.sbrk
                0x000000002002c8a0       0x18 arch/arm/cpu/armv7/start.o
 .rel.text.mem_malloc_init
                0x000000002002c8b8       0x18 arch/arm/cpu/armv7/start.o
 .rel.text.malloc_trim
                0x000000002002c8d0       0x18 arch/arm/cpu/armv7/start.o
 .rel.text.free
                0x000000002002c8e8       0x18 arch/arm/cpu/armv7/start.o
 .rel.text.malloc
                0x000000002002c900       0x40 arch/arm/cpu/armv7/start.o
 .rel.text.calloc
                0x000000002002c940        0x8 arch/arm/cpu/armv7/start.o
 .rel.text.realloc
                0x000000002002c948        0x8 arch/arm/cpu/armv7/start.o
 .rel.text.mallopt
                0x000000002002c950        0x0 arch/arm/cpu/armv7/start.o
 .rel.text.on_loadaddr
                0x000000002002c950        0x8 arch/arm/cpu/armv7/start.o
 .rel.text.getenv_bootm_low
                0x000000002002c958        0x8 arch/arm/cpu/armv7/start.o
 .rel.text.getenv_bootm_size
                0x000000002002c960       0x10 arch/arm/cpu/armv7/start.o
 .rel.text.getenv_bootm_mapsize
                0x000000002002c970        0x0 arch/arm/cpu/armv7/start.o
 .rel.text.genimg_print_size
                0x000000002002c970       0x10 arch/arm/cpu/armv7/start.o
 .rel.text.genimg_get_os_name
                0x000000002002c980       0x10 arch/arm/cpu/armv7/start.o
 .rel.text.genimg_get_arch_name
                0x000000002002c990       0x10 arch/arm/cpu/armv7/start.o
 .rel.text.genimg_get_type_name
                0x000000002002c9a0       0x10 arch/arm/cpu/armv7/start.o
 .rel.text.genimg_get_comp_name
                0x000000002002c9b0       0x10 arch/arm/cpu/armv7/start.o
 .rel.text.image_print_contents
                0x000000002002c9c0       0x50 arch/arm/cpu/armv7/start.o
 .rel.text.genimg_get_os_id
                0x000000002002ca10        0x0 arch/arm/cpu/armv7/start.o
 .rel.text.genimg_get_arch_id
                0x000000002002ca10        0x0 arch/arm/cpu/armv7/start.o
 .rel.text.genimg_get_type_id
                0x000000002002ca10        0x0 arch/arm/cpu/armv7/start.o
 .rel.text.genimg_get_comp_id
                0x000000002002ca10        0x0 arch/arm/cpu/armv7/start.o
 .rel.text.boot_get_ramdisk
                0x000000002002ca10       0x50 arch/arm/cpu/armv7/start.o
 .rel.text.boot_ramdisk_high
                0x000000002002ca60       0x20 arch/arm/cpu/armv7/start.o
 .rel.text.stdio_get_list
                0x000000002002ca80        0x8 arch/arm/cpu/armv7/start.o
 .rel.text.stdio_get_by_name
                0x000000002002ca88        0x8 arch/arm/cpu/armv7/start.o
 .rel.text.stdio_register
                0x000000002002ca90        0x8 arch/arm/cpu/armv7/start.o
 .rel.text.stdio_init
                0x000000002002ca98       0x30 arch/arm/cpu/armv7/start.o
 .rel.rodata.CSWTCH.28
                0x000000002002cac8       0x40 arch/arm/cpu/armv7/start.o
 .rel.rodata.boot_os
                0x000000002002cb08       0x38 arch/arm/cpu/armv7/start.o
 .rel.rodata.op_table
                0x000000002002cb40       0x68 arch/arm/cpu/armv7/start.o
 .rel.rodata.op_adv
                0x000000002002cba8       0x80 arch/arm/cpu/armv7/start.o
 .rel.rodata.uimage_comp
                0x000000002002cc28       0x60 arch/arm/cpu/armv7/start.o
 .rel.rodata.uimage_os
                0x000000002002cc88       0x98 arch/arm/cpu/armv7/start.o
 .rel.rodata.uimage_arch
                0x000000002002cd20      0x178 arch/arm/cpu/armv7/start.o
 .rel.rodata.uimage_type
                0x000000002002ce98      0x118 arch/arm/cpu/armv7/start.o
 .rel.data.hash_algo
                0x000000002002cfb0        0x0 arch/arm/cpu/armv7/start.o
 .rel.data.reserved_list
                0x000000002002cfb0       0x58 arch/arm/cpu/armv7/start.o
 .rel.u_boot_list_2_cmd_2_showvar
                0x000000002002d008       0x20 arch/arm/cpu/armv7/start.o
 .rel.u_boot_list_2_cmd_2_go
                0x000000002002d028       0x20 arch/arm/cpu/armv7/start.o
 .rel.u_boot_list_2_cmd_2_reset
                0x000000002002d048       0x20 arch/arm/cpu/armv7/start.o
 .rel.u_boot_list_2_cmd_2_iminfo
                0x000000002002d068       0x20 arch/arm/cpu/armv7/start.o
 .rel.u_boot_list_2_cmd_2_boot
                0x000000002002d088       0x20 arch/arm/cpu/armv7/start.o
 .rel.u_boot_list_2_cmd_2_bootd
                0x000000002002d0a8       0x20 arch/arm/cpu/armv7/start.o
 .rel.u_boot_list_2_cmd_2_bootm
                0x000000002002d0c8       0x20 arch/arm/cpu/armv7/start.o
 .rel.data.cmd_bootm_sub
                0x000000002002d0e8       0xc0 arch/arm/cpu/armv7/start.o
 .rel.u_boot_list_2_cmd_2_question_mark
                0x000000002002d1a8       0x20 arch/arm/cpu/armv7/start.o
 .rel.u_boot_list_2_cmd_2_help
                0x000000002002d1c8       0x20 arch/arm/cpu/armv7/start.o
 .rel.u_boot_list_2_cmd_2_version
                0x000000002002d1e8       0x20 arch/arm/cpu/armv7/start.o
 .rel.u_boot_list_2_env_clbk_2_callbacks
                0x000000002002d208       0x10 arch/arm/cpu/armv7/start.o
 .rel.u_boot_list_2_env_clbk_2_flags
                0x000000002002d218       0x10 arch/arm/cpu/armv7/start.o
 .rel.data.env_name_spec
                0x000000002002d228        0x8 arch/arm/cpu/armv7/start.o
 .rel.u_boot_list_2_cmd_2_source
                0x000000002002d230       0x20 arch/arm/cpu/armv7/start.o
 .rel.u_boot_list_2_cmd_2_bdinfo
                0x000000002002d250       0x20 arch/arm/cpu/armv7/start.o
 .rel.u_boot_list_2_cmd_2_icache
                0x000000002002d270       0x20 arch/arm/cpu/armv7/start.o
 .rel.u_boot_list_2_cmd_2_dcache
                0x000000002002d290       0x20 arch/arm/cpu/armv7/start.o
 .rel.u_boot_list_2_cmd_2_coninfo
                0x000000002002d2b0       0x20 arch/arm/cpu/armv7/start.o
 .rel.u_boot_list_2_cmd_2_echo
                0x000000002002d2d0       0x20 arch/arm/cpu/armv7/start.o
 .rel.u_boot_list_2_cmd_2_bootelf
                0x000000002002d2f0       0x20 arch/arm/cpu/armv7/start.o
 .rel.u_boot_list_2_cmd_2_bootvx
                0x000000002002d310       0x20 arch/arm/cpu/armv7/start.o
 .rel.u_boot_list_2_cmd_2_exit
                0x000000002002d330       0x20 arch/arm/cpu/armv7/start.o
 .rel.u_boot_list_2_cmd_2_fatinfo
                0x000000002002d350       0x20 arch/arm/cpu/armv7/start.o
 .rel.u_boot_list_2_cmd_2_fatload
                0x000000002002d370       0x20 arch/arm/cpu/armv7/start.o
 .rel.u_boot_list_2_cmd_2_fatls
                0x000000002002d390       0x20 arch/arm/cpu/armv7/start.o
 .rel.u_boot_list_2_cmd_2_itest
                0x000000002002d3b0       0x20 arch/arm/cpu/armv7/start.o
 .rel.u_boot_list_2_cmd_2_loadb
                0x000000002002d3d0       0x20 arch/arm/cpu/armv7/start.o
 .rel.u_boot_list_2_cmd_2_loadx
                0x000000002002d3f0       0x20 arch/arm/cpu/armv7/start.o
 .rel.u_boot_list_2_cmd_2_loady
                0x000000002002d410       0x20 arch/arm/cpu/armv7/start.o
 .rel.u_boot_list_2_cmd_2_loads
                0x000000002002d430       0x20 arch/arm/cpu/armv7/start.o
 .rel.u_boot_list_2_cmd_2_base
                0x000000002002d450       0x20 arch/arm/cpu/armv7/start.o
 .rel.u_boot_list_2_cmd_2_cmp
                0x000000002002d470       0x20 arch/arm/cpu/armv7/start.o
 .rel.u_boot_list_2_cmd_2_nm
                0x000000002002d490       0x20 arch/arm/cpu/armv7/start.o
 .rel.u_boot_list_2_cmd_2_loop
                0x000000002002d4b0       0x20 arch/arm/cpu/armv7/start.o
 .rel.u_boot_list_2_cmd_2_cp
                0x000000002002d4d0       0x20 arch/arm/cpu/armv7/start.o
 .rel.u_boot_list_2_cmd_2_mm
                0x000000002002d4f0       0x20 arch/arm/cpu/armv7/start.o
 .rel.u_boot_list_2_cmd_2_crc32
                0x000000002002d510       0x20 arch/arm/cpu/armv7/start.o
 .rel.u_boot_list_2_cmd_2_md
                0x000000002002d530       0x20 arch/arm/cpu/armv7/start.o
 .rel.u_boot_list_2_cmd_2_mw
                0x000000002002d550       0x20 arch/arm/cpu/armv7/start.o
 .rel.u_boot_list_2_cmd_2_sleep
                0x000000002002d570       0x20 arch/arm/cpu/armv7/start.o
 .rel.u_boot_list_2_cmd_2_mtdparts
                0x000000002002d590       0x20 arch/arm/cpu/armv7/start.o
 .rel.u_boot_list_2_cmd_2_chpart
                0x000000002002d5b0       0x20 arch/arm/cpu/armv7/start.o
 .rel.u_boot_list_2_cmd_2_bootp
                0x000000002002d5d0       0x20 arch/arm/cpu/armv7/start.o
 .rel.u_boot_list_2_cmd_2_tftpboot
                0x000000002002d5f0       0x20 arch/arm/cpu/armv7/start.o
 .rel.u_boot_list_2_cmd_2_nfs
                0x000000002002d610       0x20 arch/arm/cpu/armv7/start.o
 .rel.u_boot_list_2_cmd_2_onenand
                0x000000002002d630       0x20 arch/arm/cpu/armv7/start.o
 .rel.data.cmd_onenand_sub
                0x000000002002d650      0x120 arch/arm/cpu/armv7/start.o
 .rel.u_boot_list_2_cmd_2_reginfo
                0x000000002002d770       0x20 arch/arm/cpu/armv7/start.o
 .rel.u_boot_list_2_cmd_2_test
                0x000000002002d790       0x20 arch/arm/cpu/armv7/start.o
 .rel.u_boot_list_2_cmd_2_true
                0x000000002002d7b0       0x18 arch/arm/cpu/armv7/start.o
 .rel.u_boot_list_2_cmd_2_false
                0x000000002002d7c8       0x18 arch/arm/cpu/armv7/start.o
 .rel.u_boot_list_2_cmd_2_imxtract
                0x000000002002d7e0       0x20 arch/arm/cpu/armv7/start.o
 .rel.u_boot_list_2_cmd_2_env
                0x000000002002d800       0x20 arch/arm/cpu/armv7/start.o
 .rel.u_boot_list_2_cmd_2_setenv
                0x000000002002d820       0x20 arch/arm/cpu/armv7/start.o
 .rel.u_boot_list_2_cmd_2_saveenv
                0x000000002002d840       0x20 arch/arm/cpu/armv7/start.o
 .rel.data.cmd_env_sub
                0x000000002002d860      0x120 arch/arm/cpu/armv7/start.o
 .rel.u_boot_list_2_cmd_2_printenv
                0x000000002002d980       0x20 arch/arm/cpu/armv7/start.o
 .rel.u_boot_list_2_cmd_2_editenv
                0x000000002002d9a0       0x20 arch/arm/cpu/armv7/start.o
 .rel.u_boot_list_2_cmd_2_run
                0x000000002002d9c0       0x20 arch/arm/cpu/armv7/start.o
 .rel.data.env_htab
                0x000000002002d9e0        0x8 arch/arm/cpu/armv7/start.o
 .rel.u_boot_list_2_env_clbk_2_console
                0x000000002002d9e8       0x10 arch/arm/cpu/armv7/start.o
 .rel.data.av_  0x000000002002d9f8      0x800 arch/arm/cpu/armv7/start.o
 .rel.u_boot_list_2_env_clbk_2_loadaddr
                0x000000002002e1f8       0x10 arch/arm/cpu/armv7/start.o
 .rel.data.stdio_names
                0x000000002002e208       0x18 arch/arm/cpu/armv7/start.o
 .rel.text.get_device
                0x000000002002e220       0x10 arch/arm/cpu/armv7/start.o
 .rel.text.get_device_and_partition
                0x000000002002e230       0x58 arch/arm/cpu/armv7/start.o
 .rel.text.wdt_stop
                0x000000002002e288        0x0 arch/arm/cpu/armv7/start.o
 .rel.text.wdt_start
                0x000000002002e288        0x0 arch/arm/cpu/armv7/start.o
 .rel.text.s5p_gpio_get_bank
                0x000000002002e288        0x0 arch/arm/cpu/armv7/start.o
 .rel.text.input_send_keycodes
                0x000000002002e288        0x0 arch/arm/cpu/armv7/start.o
 .rel.text.input_init
                0x000000002002e288        0x0 arch/arm/cpu/armv7/start.o
 .rel.text.input_stdio_register
                0x000000002002e288        0x0 arch/arm/cpu/armv7/start.o
 .rel.rodata.kbd_to_ansi364
                0x000000002002e288        0x0 arch/arm/cpu/armv7/start.o
 .rel.text.add_mtd_device
                0x000000002002e288       0x18 arch/arm/cpu/armv7/start.o
 .rel.text.del_mtd_device
                0x000000002002e2a0        0x0 arch/arm/cpu/armv7/start.o
 .rel.text.get_mtd_device
                0x000000002002e2a0        0x0 arch/arm/cpu/armv7/start.o
 .rel.text.get_mtd_device_nm
                0x000000002002e2a0        0x8 arch/arm/cpu/armv7/start.o
 .rel.text.put_mtd_device
                0x000000002002e2a8        0x0 arch/arm/cpu/armv7/start.o
 .rel.text.mtd_erase_callback
                0x000000002002e2a8        0x8 arch/arm/cpu/armv7/start.o
 .rel.text.del_mtd_partitions
                0x000000002002e2b0        0x0 arch/arm/cpu/armv7/start.o
 .rel.text.add_mtd_partitions
                0x000000002002e2b0        0x0 arch/arm/cpu/armv7/start.o
 .rel.text.onenand_init
                0x000000002002e2b0       0x30 arch/arm/cpu/armv7/start.o
 .rel.text.flexonenand_get_size
                0x000000002002e2e0       0x28 arch/arm/cpu/armv7/start.o
 .rel.text.onenand_bbt_wait
                0x000000002002e308       0x18 arch/arm/cpu/armv7/start.o
 .rel.text.onenand_wait
                0x000000002002e320       0x18 arch/arm/cpu/armv7/start.o
 .rel.text.onenand_write_ops_nolock
                0x000000002002e338       0x18 arch/arm/cpu/armv7/start.o
 .rel.text.onenand_write_oob_nolock
                0x000000002002e350       0x20 arch/arm/cpu/armv7/start.o
 .rel.text.onenand_recover_lsb
                0x000000002002e370        0x8 arch/arm/cpu/armv7/start.o
 .rel.text.onenand_read_ops_nolock
                0x000000002002e378        0x8 arch/arm/cpu/armv7/start.o
 .rel.text.onenand_read_oob_nolock
                0x000000002002e380       0x18 arch/arm/cpu/armv7/start.o
 .rel.text.onenand_erase
                0x000000002002e398       0x10 arch/arm/cpu/armv7/start.o
 .rel.text.onenand_bbt_read_oob
                0x000000002002e3a8        0x8 arch/arm/cpu/armv7/start.o
 .rel.text.onenand_print_device_info
                0x000000002002e3b0       0x48 arch/arm/cpu/armv7/start.o
 .rel.text.flexonenand_set_boundary
                0x000000002002e3f8        0x0 arch/arm/cpu/armv7/start.o
 .rel.text.onenand_probe
                0x000000002002e3f8       0x60 arch/arm/cpu/armv7/start.o
 .rel.text.onenand_scan
                0x000000002002e458       0xa0 arch/arm/cpu/armv7/start.o
 .rel.text.onenand_scan_bbt
                0x000000002002e4f8       0x20 arch/arm/cpu/armv7/start.o
 .rel.text.onenand_default_bbt
                0x000000002002e518        0x8 arch/arm/cpu/armv7/start.o
 .rel.text.s3c_write_cmd
                0x000000002002e520        0x8 arch/arm/cpu/armv7/start.o
 .rel.text.s3c_onenand_reset
                0x000000002002e528        0x8 arch/arm/cpu/armv7/start.o
 .rel.text.s3c_get_bufferram
                0x000000002002e530        0x8 arch/arm/cpu/armv7/start.o
 .rel.text.s3c_onenand_bbt_wait
                0x000000002002e538        0x8 arch/arm/cpu/armv7/start.o
 .rel.text.s3c_onenand_wait
                0x000000002002e540       0x30 arch/arm/cpu/armv7/start.o
 .rel.text.s3c_onenand_readw
                0x000000002002e570       0x10 arch/arm/cpu/armv7/start.o
 .rel.text.s3c_onenand_writew
                0x000000002002e580       0x10 arch/arm/cpu/armv7/start.o
 .rel.text.s3c_onenand_check_lock_status.isra.0
                0x000000002002e590       0x10 arch/arm/cpu/armv7/start.o
 .rel.text.s3c_onenand_unlock_all
                0x000000002002e5a0        0x8 arch/arm/cpu/armv7/start.o
 .rel.text.s3c_onenand_command
                0x000000002002e5a8        0x8 arch/arm/cpu/armv7/start.o
 .rel.text.s3c_onenand_init
                0x000000002002e5b0       0x50 arch/arm/cpu/armv7/start.o
 .rel.data.largepage_memorybased
                0x000000002002e600        0x8 arch/arm/cpu/armv7/start.o
 .rel.text.smc911x_reset
                0x000000002002e608       0x10 arch/arm/cpu/armv7/start.o
 .rel.text.smc911x_init
                0x000000002002e618       0x20 arch/arm/cpu/armv7/start.o
 .rel.text.smc911x_rx
                0x000000002002e638       0x10 arch/arm/cpu/armv7/start.o
 .rel.text.smc911x_send
                0x000000002002e648       0x38 arch/arm/cpu/armv7/start.o
 .rel.text.smc911x_initialize
                0x000000002002e680       0x48 arch/arm/cpu/armv7/start.o
 .rel.rodata.chip_ids
                0x000000002002e6c8       0x60 arch/arm/cpu/armv7/start.o
 .rel.text.get_current
                0x000000002002e728       0x10 arch/arm/cpu/armv7/start.o
 .rel.text.serial_register
                0x000000002002e738        0x8 arch/arm/cpu/armv7/start.o
 .rel.text.serial_stdio_init
                0x000000002002e740        0x8 arch/arm/cpu/armv7/start.o
 .rel.text.serial_assign
                0x000000002002e748       0x10 arch/arm/cpu/armv7/start.o
 .rel.text.serial_reinit_all
                0x000000002002e758        0x0 arch/arm/cpu/armv7/start.o
 .rel.text.on_baudrate
                0x000000002002e758       0x18 arch/arm/cpu/armv7/start.o
 .rel.text.serial_tstc_dev
                0x000000002002e770       0x10 arch/arm/cpu/armv7/start.o
 .rel.text.serial_putc_dev
                0x000000002002e780       0x10 arch/arm/cpu/armv7/start.o
 .rel.text.serial_setbrg_dev
                0x000000002002e790       0x18 arch/arm/cpu/armv7/start.o
 .rel.text.serial_init_dev
                0x000000002002e7a8        0x8 arch/arm/cpu/armv7/start.o
 .rel.text.serial_getc_dev
                0x000000002002e7b0       0x10 arch/arm/cpu/armv7/start.o
 .rel.text.default_serial_console
                0x000000002002e7c0       0x10 arch/arm/cpu/armv7/start.o
 .rel.text.s5p_serial_initialize
                0x000000002002e7d0       0x20 arch/arm/cpu/armv7/start.o
 .rel.u_boot_list_2_env_clbk_2_baudrate
                0x000000002002e7f0       0x10 arch/arm/cpu/armv7/start.o
 .rel.data.s5p_serial1_device
                0x000000002002e800       0x30 arch/arm/cpu/armv7/start.o
 .rel.data.s5p_serial0_device
                0x000000002002e830       0x30 arch/arm/cpu/armv7/start.o
 .rel.data.s5p_serial2_device
                0x000000002002e860       0x30 arch/arm/cpu/armv7/start.o
 .rel.data.s5p_serial3_device
                0x000000002002e890       0x30 arch/arm/cpu/armv7/start.o
 .rel.text.spi_set_wordlen
                0x000000002002e8c0        0x0 arch/arm/cpu/armv7/start.o
 .rel.text.fs_probe_unsupported
                0x000000002002e8c0        0x8 arch/arm/cpu/armv7/start.o
 .rel.text.fs_get_info
                0x000000002002e8c8        0x8 arch/arm/cpu/armv7/start.o
 .rel.text.fs_close
                0x000000002002e8d0        0x8 arch/arm/cpu/armv7/start.o
 .rel.text.fs_set_blk_dev
                0x000000002002e8d8       0x20 arch/arm/cpu/armv7/start.o
 .rel.text.fs_ls
                0x000000002002e8f8        0x8 arch/arm/cpu/armv7/start.o
 .rel.text.fs_exists
                0x000000002002e900        0x8 arch/arm/cpu/armv7/start.o
 .rel.text.fs_read
                0x000000002002e908       0x10 arch/arm/cpu/armv7/start.o
 .rel.text.fs_write
                0x000000002002e918        0x0 arch/arm/cpu/armv7/start.o
 .rel.text.do_load
                0x000000002002e918       0x48 arch/arm/cpu/armv7/start.o
 .rel.text.do_ls
                0x000000002002e960        0x8 arch/arm/cpu/armv7/start.o
 .rel.text.do_save
                0x000000002002e968        0x0 arch/arm/cpu/armv7/start.o
 .rel.text.downcase
                0x000000002002e968        0x8 arch/arm/cpu/armv7/start.o
 .rel.text.disk_read
                0x000000002002e970       0x10 arch/arm/cpu/armv7/start.o
 .rel.text.get_cluster
                0x000000002002e980        0x8 arch/arm/cpu/armv7/start.o
 .rel.text.read_bootsectandvi
                0x000000002002e988       0x20 arch/arm/cpu/armv7/start.o
 .rel.text.get_vfatname
                0x000000002002e9a8       0x10 arch/arm/cpu/armv7/start.o
 .rel.text.fat_set_blk_dev
                0x000000002002e9b8       0x28 arch/arm/cpu/armv7/start.o
 .rel.text.fat_register_device
                0x000000002002e9e0        0x0 arch/arm/cpu/armv7/start.o
 .rel.text.do_fat_read_at
                0x000000002002e9e0       0x58 arch/arm/cpu/armv7/start.o
 .rel.text.file_fat_detectfs
                0x000000002002ea38       0x20 arch/arm/cpu/armv7/start.o
 .rel.text.file_fat_read_at
                0x000000002002ea58        0x8 arch/arm/cpu/armv7/start.o
 .rel.text.fat_read_file
                0x000000002002ea60        0x8 arch/arm/cpu/armv7/start.o
 .rel.text.file_getfsname
                0x000000002002ea68        0x0 arch/arm/cpu/armv7/start.o
 .rel.text.file_cd
                0x000000002002ea68        0x0 arch/arm/cpu/armv7/start.o
 .rel.text.file_detectfs
                0x000000002002ea68        0x0 arch/arm/cpu/armv7/start.o
 .rel.text.file_ls
                0x000000002002ea68        0x0 arch/arm/cpu/armv7/start.o
 .rel.text.file_read
                0x000000002002ea68        0x0 arch/arm/cpu/armv7/start.o
 .rel.rodata.filesystems
                0x000000002002ea68        0x0 arch/arm/cpu/armv7/start.o
 .rel.data.fstypes
                0x000000002002ea68       0x60 arch/arm/cpu/armv7/start.o
 .rel.text.inflate_fast
                0x000000002002eac8       0x18 arch/arm/cpu/armv7/start.o
 .rel.text.inflate_table
                0x000000002002eae0       0x20 arch/arm/cpu/armv7/start.o
 .rel.text.inflateInit2_
                0x000000002002eb00       0x10 arch/arm/cpu/armv7/start.o
 .rel.text.inflate
                0x000000002002eb10      0x188 arch/arm/cpu/armv7/start.o
 .rel.text.crc7
                0x000000002002ec98        0x0 arch/arm/cpu/armv7/start.o
 .rel.text.cyg_crc16
                0x000000002002ec98        0x8 arch/arm/cpu/armv7/start.o
 .rel.text.zunzip
                0x000000002002eca0       0x28 arch/arm/cpu/armv7/start.o
 .rel.text.gunzip
                0x000000002002ecc8       0x10 arch/arm/cpu/armv7/start.o
 .rel.text.lmb_alloc_base
                0x000000002002ecd8        0x8 arch/arm/cpu/armv7/start.o
 .rel.text.strmhz
                0x000000002002ece0       0x10 arch/arm/cpu/armv7/start.o
 .rel.text.match_string.isra.3
                0x000000002002ecf0        0x8 arch/arm/cpu/armv7/start.o
 .rel.text.hcreate_r
                0x000000002002ecf8        0x8 arch/arm/cpu/armv7/start.o
 .rel.text.hdestroy_r
                0x000000002002ed00        0x8 arch/arm/cpu/armv7/start.o
 .rel.text.hmatch_r
                0x000000002002ed08        0x0 arch/arm/cpu/armv7/start.o
 .rel.text.hsearch_r
                0x000000002002ed08        0x8 arch/arm/cpu/armv7/start.o
 .rel.text.hdelete_r
                0x000000002002ed10        0x8 arch/arm/cpu/armv7/start.o
 .rel.text.hexport_r
                0x000000002002ed18       0x18 arch/arm/cpu/armv7/start.o
 .rel.text.himport_r
                0x000000002002ed30       0x20 arch/arm/cpu/armv7/start.o
 .rel.text.display_options
                0x000000002002ed50        0x0 arch/arm/cpu/armv7/start.o
 .rel.text.print_size
                0x000000002002ed50       0x28 arch/arm/cpu/armv7/start.o
 .rel.text.print_buffer
                0x000000002002ed78       0x28 arch/arm/cpu/armv7/start.o
 .rel.text.crc32_no_comp
                0x000000002002eda0        0x8 arch/arm/cpu/armv7/start.o
 .rel.text.hang
                0x000000002002eda8        0x8 arch/arm/cpu/armv7/start.o
 .rel.text.skip_spaces
                0x000000002002edb0        0x8 arch/arm/cpu/armv7/start.o
 .rel.text.strim
                0x000000002002edb8        0x8 arch/arm/cpu/armv7/start.o
 .rel.text.strncasecmp
                0x000000002002edc0        0x0 arch/arm/cpu/armv7/start.o
 .rel.text.strtok
                0x000000002002edc0        0x0 arch/arm/cpu/armv7/start.o
 .rel.text.string.isra.0
                0x000000002002edc0        0x8 arch/arm/cpu/armv7/start.o
 .rel.text.number.isra.4
                0x000000002002edc8        0x8 arch/arm/cpu/armv7/start.o
 .rel.text.vsnprintf_internal.isra.6
                0x000000002002edd0       0x10 arch/arm/cpu/armv7/start.o
 .rel.text.simple_strtoul
                0x000000002002ede0        0x8 arch/arm/cpu/armv7/start.o
 .rel.text.simple_strtoull
                0x000000002002ede8        0x8 arch/arm/cpu/armv7/start.o
 .rel.text.__assert_fail
                0x000000002002edf0        0x0 arch/arm/cpu/armv7/start.o
 .rel.text.simple_itoa
                0x000000002002edf0        0x8 arch/arm/cpu/armv7/start.o
 .rel.text.print_grouped_ull
                0x000000002002edf8        0x0 arch/arm/cpu/armv7/start.o
 .rel.rodata.z_errmsg
                0x000000002002edf8        0x0 arch/arm/cpu/armv7/start.o
 .rel.text.ArpInit
                0x000000002002edf8       0x30 arch/arm/cpu/armv7/start.o
 .rel.text.arp_raw_request
                0x000000002002ee28       0x18 arch/arm/cpu/armv7/start.o
 .rel.text.ArpRequest
                0x000000002002ee40       0x38 arch/arm/cpu/armv7/start.o
 .rel.text.ArpTimeoutCheck
                0x000000002002ee78       0x20 arch/arm/cpu/armv7/start.o
 .rel.text.ArpReceive
                0x000000002002ee98       0x40 arch/arm/cpu/armv7/start.o
 .rel.text.BootpHandler
                0x000000002002eed8       0x90 arch/arm/cpu/armv7/start.o
 .rel.text.BootpRequest
                0x000000002002ef68       0x48 arch/arm/cpu/armv7/start.o
 .rel.text.BootpTimeout
                0x000000002002efb0       0x18 arch/arm/cpu/armv7/start.o
 .rel.text.eth_current_changed
                0x000000002002efc8       0x10 arch/arm/cpu/armv7/start.o
 .rel.text.eth_setenv_enetaddr
                0x000000002002efd8        0x8 arch/arm/cpu/armv7/start.o
 .rel.text.eth_getenv_enetaddr_by_index
                0x000000002002efe0       0x10 arch/arm/cpu/armv7/start.o
 .rel.text.eth_get_dev_by_name
                0x000000002002eff0        0x0 arch/arm/cpu/armv7/start.o
 .rel.text.eth_get_dev_by_index
                0x000000002002eff0        0x8 arch/arm/cpu/armv7/start.o
 .rel.text.eth_get_dev_index
                0x000000002002eff8        0x8 arch/arm/cpu/armv7/start.o
 .rel.text.eth_write_hwaddr
                0x000000002002f000       0x48 arch/arm/cpu/armv7/start.o
 .rel.text.eth_register
                0x000000002002f048       0x18 arch/arm/cpu/armv7/start.o
 .rel.text.eth_unregister
                0x000000002002f060        0x0 arch/arm/cpu/armv7/start.o
 .rel.text.eth_initialize
                0x000000002002f060       0x90 arch/arm/cpu/armv7/start.o
 .rel.text.eth_halt
                0x000000002002f0f0        0x8 arch/arm/cpu/armv7/start.o
 .rel.text.eth_send
                0x000000002002f0f8        0x8 arch/arm/cpu/armv7/start.o
 .rel.text.eth_rx
                0x000000002002f100        0x8 arch/arm/cpu/armv7/start.o
 .rel.text.eth_try_another
                0x000000002002f108       0x28 arch/arm/cpu/armv7/start.o
 .rel.text.eth_init
                0x000000002002f130       0x20 arch/arm/cpu/armv7/start.o
 .rel.text.eth_set_current
                0x000000002002f150       0x20 arch/arm/cpu/armv7/start.o
 .rel.text.eth_get_name
                0x000000002002f170       0x10 arch/arm/cpu/armv7/start.o
 .rel.text.startAgainTimeout
                0x000000002002f180        0x8 arch/arm/cpu/armv7/start.o
 .rel.text.net_clear_handlers
                0x000000002002f188       0x20 arch/arm/cpu/armv7/start.o
 .rel.text.net_auto_load
                0x000000002002f1a8       0x18 arch/arm/cpu/armv7/start.o
 .rel.text.NetStartAgain
                0x000000002002f1c0       0x78 arch/arm/cpu/armv7/start.o
 .rel.text.net_get_udp_handler
                0x000000002002f238        0x0 arch/arm/cpu/armv7/start.o
 .rel.text.net_set_udp_handler
                0x000000002002f238       0x10 arch/arm/cpu/armv7/start.o
 .rel.text.net_get_arp_handler
                0x000000002002f248        0x8 arch/arm/cpu/armv7/start.o
 .rel.text.net_set_arp_handler
                0x000000002002f250        0x0 arch/arm/cpu/armv7/start.o
 .rel.text.NetSetTimeout
                0x000000002002f250       0x18 arch/arm/cpu/armv7/start.o
 .rel.text.NetReceive
                0x000000002002f268       0x38 arch/arm/cpu/armv7/start.o
 .rel.text.NetEthHdrSize
                0x000000002002f2a0        0x8 arch/arm/cpu/armv7/start.o
 .rel.text.NetSetEther
                0x000000002002f2a8       0x10 arch/arm/cpu/armv7/start.o
 .rel.text.net_update_ether
                0x000000002002f2b8        0x8 arch/arm/cpu/armv7/start.o
 .rel.text.net_set_ip_header
                0x000000002002f2c0        0x8 arch/arm/cpu/armv7/start.o
 .rel.text.net_set_udp_header
                0x000000002002f2c8        0x8 arch/arm/cpu/armv7/start.o
 .rel.text.NetSendUDPPacket
                0x000000002002f2d0       0x40 arch/arm/cpu/armv7/start.o
 .rel.text.on_bootfile
                0x000000002002f310        0x8 arch/arm/cpu/armv7/start.o
 .rel.text.ip_to_string
                0x000000002002f318        0x8 arch/arm/cpu/armv7/start.o
 .rel.text.VLAN_to_string
                0x000000002002f320        0x0 arch/arm/cpu/armv7/start.o
 .rel.text.NetInitLoop
                0x000000002002f320       0x78 arch/arm/cpu/armv7/start.o
 .rel.text.net_init
                0x000000002002f398       0x20 arch/arm/cpu/armv7/start.o
 .rel.text.NetLoop
                0x000000002002f3b8       0xc8 arch/arm/cpu/armv7/start.o
 .rel.text.rpc_lookup_reply
                0x000000002002f480       0x18 arch/arm/cpu/armv7/start.o
 .rel.text.nfs_mount_reply
                0x000000002002f498       0x18 arch/arm/cpu/armv7/start.o
 .rel.text.nfs_umountall_reply
                0x000000002002f4b0       0x18 arch/arm/cpu/armv7/start.o
 .rel.text.nfs_lookup_reply
                0x000000002002f4c8       0x10 arch/arm/cpu/armv7/start.o
 .rel.text.nfs_readlink_reply
                0x000000002002f4d8       0x18 arch/arm/cpu/armv7/start.o
 .rel.text.rpc_add_credentials
                0x000000002002f4f0        0x8 arch/arm/cpu/armv7/start.o
 .rel.text.rpc_req
                0x000000002002f4f8       0x38 arch/arm/cpu/armv7/start.o
 .rel.text.nfs_umountall_req
                0x000000002002f530       0x10 arch/arm/cpu/armv7/start.o
 .rel.text.nfs_lookup_req
                0x000000002002f540        0x8 arch/arm/cpu/armv7/start.o
 .rel.text.nfs_read_req
                0x000000002002f548        0x8 arch/arm/cpu/armv7/start.o
 .rel.text.nfs_readlink_req
                0x000000002002f550        0x8 arch/arm/cpu/armv7/start.o
 .rel.text.nfs_read_reply.isra.0
                0x000000002002f558       0x28 arch/arm/cpu/armv7/start.o
 .rel.text.NfsSend
                0x000000002002f580       0x60 arch/arm/cpu/armv7/start.o
 .rel.text.NfsHandler
                0x000000002002f5e0       0xa8 arch/arm/cpu/armv7/start.o
 .rel.text.NfsTimeout
                0x000000002002f688       0x20 arch/arm/cpu/armv7/start.o
 .rel.text.NfsStart
                0x000000002002f6a8       0xe0 arch/arm/cpu/armv7/start.o
 .rel.text.TftpSend
                0x000000002002f788       0xb8 arch/arm/cpu/armv7/start.o
 .rel.text.TftpHandler
                0x000000002002f840       0xc0 arch/arm/cpu/armv7/start.o
 .rel.text.TftpTimeout
                0x000000002002f900       0x40 arch/arm/cpu/armv7/start.o
 .rel.text.TftpStart
                0x000000002002f940      0x130 arch/arm/cpu/armv7/start.o
 .rel.u_boot_list_2_env_clbk_2_bootfile
                0x000000002002fa70       0x10 arch/arm/cpu/armv7/start.o
 .rel.text.raise
                0x000000002002fa80        0x8 arch/arm/cpu/armv7/start.o

.rel_dyn_end    0x000000002002fa88        0x0
 *(.__rel_dyn_end)
 .__rel_dyn_end
                0x000000002002fa88        0x0 arch/arm/lib/built-in.o

.end
 *(.__end)
                0x000000002002fa88                _image_binary_end = .
                0x0000000020030000                . = ALIGN (0x1000)

.mmutable
 *(.mmutable)

.bss_start      0x000000002002ab90        0x0
 *(.__bss_start)
 .__bss_start   0x000000002002ab90        0x0 arch/arm/lib/built-in.o
                0x000000002002ab90                __bss_start
                0x000000002002ab90                __bss_base = .

.bss            0x000000002002ab90    0x353b0
 *(.bss*)
 .bss.monitor_flash_len
                0x000000002002ab90        0x4 arch/arm/lib/built-in.o
                0x000000002002ab90                monitor_flash_len
 .bss.params    0x000000002002ab94        0x4 arch/arm/lib/built-in.o
 .bss.hist_list
                0x000000002002ab98       0x50 common/built-in.o
 .bss.hist_lines
                0x000000002002abe8     0x1414 common/built-in.o
 .bss.hist_max  0x000000002002bffc        0x4 common/built-in.o
 .bss.hist_add_idx
                0x000000002002c000        0x4 common/built-in.o
 .bss.initted.7101
                0x000000002002c004        0x4 common/built-in.o
 .bss.hist_num  0x000000002002c008        0x4 common/built-in.o
 .bss.console_buffer
                0x000000002002c00c      0x101 common/built-in.o
                0x000000002002c00c                console_buffer
 .bss.the_command.6507
                0x000000002002c10d      0x100 common/built-in.o
 *fill*         0x000000002002c20d        0x3 
 .bss.flag_repeat
                0x000000002002c210        0x4 common/built-in.o
 .bss.buf.6707  0x000000002002c214       0x28 common/built-in.o
 .bss.ifs       0x000000002002c23c        0x4 common/built-in.o
 .bss.last_return_code
                0x000000002002c240        0x4 common/built-in.o
 .bss.map       0x000000002002c244      0x100 common/built-in.o
 .bss.do_repeat
                0x000000002002c344        0x4 common/built-in.o
 .bss.top_vars  0x000000002002c348        0x4 common/built-in.o
 .bss.xyz       0x000000002002c34c      0x434 common/built-in.o
 .bss.images    0x000000002002c780      0x130 common/built-in.o
                0x000000002002c780                images
 .bss.callback_list
                0x000000002002c8b0        0x4 common/built-in.o
 .bss.flags_list
                0x000000002002c8b4        0x4 common/built-in.o
 .bss.send_parms
                0x000000002002c8b8       0x14 common/built-in.o
 .bss.os_data_init
                0x000000002002c8cc        0x4 common/built-in.o
 .bss.os_data_addr_saved
                0x000000002002c8d0        0x4 common/built-in.o
 .bss.his_pad_char
                0x000000002002c8d4        0x1 common/built-in.o
 .bss.a_b       0x000000002002c8d5       0x18 common/built-in.o
 *fill*         0x000000002002c8ed        0x3 
 .bss.os_data_char
                0x000000002002c8f0        0x4 common/built-in.o
 .bss.os_data_state
                0x000000002002c8f4        0x4 common/built-in.o
 .bss.k_data_escape
                0x000000002002c8f8        0x4 common/built-in.o
 .bss.os_data_state_saved
                0x000000002002c8fc        0x4 common/built-in.o
 .bss.os_data_addr
                0x000000002002c900        0x4 common/built-in.o
 .bss.send_ptr  0x000000002002c904        0x4 common/built-in.o
 .bss.bin_start_address
                0x000000002002c908        0x4 common/built-in.o
 .bss.his_quote
                0x000000002002c90c        0x1 common/built-in.o
 *fill*         0x000000002002c90d        0x3 
 .bss.his_pad_count
                0x000000002002c910        0x4 common/built-in.o
 .bss.his_eol   0x000000002002c914        0x1 common/built-in.o
 *fill*         0x000000002002c915        0x3 
 .bss.k_data_escape_saved
                0x000000002002c918        0x4 common/built-in.o
 .bss.dp_last_addr
                0x000000002002c91c        0x4 common/built-in.o
 .bss.base_address
                0x000000002002c920        0x4 common/built-in.o
 .bss.mm_last_size
                0x000000002002c924        0x4 common/built-in.o
 .bss.mm_last_addr
                0x000000002002c928        0x4 common/built-in.o
 .bss.dp_last_size
                0x000000002002c92c        0x4 common/built-in.o
 .bss.last_ids  0x000000002002c930       0x80 common/built-in.o
 .bss.current_mtd_dev
                0x000000002002c9b0        0x4 common/built-in.o
                0x000000002002c9b0                current_mtd_dev
 .bss.last_partition
                0x000000002002c9b4       0x10 common/built-in.o
 .bss.last_parts
                0x000000002002c9c4      0x200 common/built-in.o
 .bss.initialized.7215
                0x000000002002cbc4        0x4 common/built-in.o
 .bss.current_mtd_partnum
                0x000000002002cbc8        0x1 common/built-in.o
                0x000000002002cbc8                current_mtd_partnum
 *fill*         0x000000002002cbc9        0x3 
 .bss.mtdids    0x000000002002cbcc        0x8 common/built-in.o
 .bss.devices   0x000000002002cbd4        0x8 common/built-in.o
 *fill*         0x000000002002cbdc        0x4 
 .bss.skip_ofs  0x000000002002cbe0        0x8 common/built-in.o
 .bss.mtd       0x000000002002cbe8        0x4 common/built-in.o
 *fill*         0x000000002002cbec        0x4 
 .bss.next_ofs  0x000000002002cbf0        0x8 common/built-in.o
 .bss.ctrlc_was_pressed
                0x000000002002cbf8        0x4 common/built-in.o
 .bss.ctrlc_disabled
                0x000000002002cbfc        0x4 common/built-in.o
 .bss.max_total_mem
                0x000000002002cc00        0x4 common/built-in.o
 .bss.mem_malloc_brk
                0x000000002002cc04        0x4 common/built-in.o
                0x000000002002cc04                mem_malloc_brk
 .bss.max_sbrked_mem
                0x000000002002cc08        0x4 common/built-in.o
 .bss.current_mallinfo
                0x000000002002cc0c       0x28 common/built-in.o
 .bss.mem_malloc_end
                0x000000002002cc34        0x4 common/built-in.o
                0x000000002002cc34                mem_malloc_end
 .bss.top_pad   0x000000002002cc38        0x4 common/built-in.o
 .bss.mem_malloc_start
                0x000000002002cc3c        0x4 common/built-in.o
                0x000000002002cc3c                mem_malloc_start
 .bss.devs      0x000000002002cc40       0x3c common/built-in.o
 .bss.stdio_devices
                0x000000002002cc7c        0xc common/built-in.o
                0x000000002002cc7c                stdio_devices
 .bss.mtd_table
                0x000000002002cc88       0x80 drivers/mtd/built-in.o
                0x000000002002cc88                mtd_table
 .bss.onenand_mtd
                0x000000002002cd08       0xb0 drivers/mtd/onenand/built-in.o
                0x000000002002cd08                onenand_mtd
 .bss.onenand_chip
                0x000000002002cdb8       0xa8 drivers/mtd/onenand/built-in.o
                0x000000002002cdb8                onenand_chip
 .bss.onenand   0x000000002002ce60        0x4 drivers/mtd/onenand/built-in.o
 .bss.serial_devices
                0x000000002002ce64        0x4 drivers/serial/built-in.o
 .bss.serial_current
                0x000000002002ce68        0x4 drivers/serial/built-in.o
 .bss.fs_partition
                0x000000002002ce6c       0x50 fs/built-in.o
 .bss.fs_type   0x000000002002cebc        0x4 fs/built-in.o
 .bss.fs_dev_desc
                0x000000002002cec0        0x4 fs/built-in.o
 *fill*         0x000000002002cec4       0x3c 
 .bss.do_fat_read_at_block
                0x000000002002cf00    0x10000 fs/built-in.o
                0x000000002002cf00                do_fat_read_at_block
 .bss.get_dentfromdir_block
                0x000000002003cf00    0x10000 fs/built-in.o
                0x000000002003cf00                get_dentfromdir_block
 .bss.cur_part_info
                0x000000002004cf00       0x50 fs/built-in.o
 *fill*         0x000000002004cf50       0x30 
 .bss.get_contents_vfatname_block
                0x000000002004cf80    0x10000 fs/built-in.o
                0x000000002004cf80                get_contents_vfatname_block
 .bss.cur_dev   0x000000002005cf80        0x4 fs/built-in.o
 .bss.errno     0x000000002005cf84        0x4 lib/built-in.o
                0x000000002005cf84                errno
 .bss.local.6535
                0x000000002005cf88       0x16 lib/built-in.o
 *fill*         0x000000002005cf9e        0x2 
 .bss.NetArpWaitPacketIP
                0x000000002005cfa0        0x4 net/built-in.o
                0x000000002005cfa0                NetArpWaitPacketIP
 .bss.NetArpWaitTimerStart
                0x000000002005cfa4        0x4 net/built-in.o
                0x000000002005cfa4                NetArpWaitTimerStart
 .bss.NetArpWaitReplyIP
                0x000000002005cfa8        0x4 net/built-in.o
 .bss.NetArpWaitTxPacketSize
                0x000000002005cfac        0x4 net/built-in.o
                0x000000002005cfac                NetArpWaitTxPacketSize
 .bss.NetArpWaitTry
                0x000000002005cfb0        0x4 net/built-in.o
                0x000000002005cfb0                NetArpWaitTry
 .bss.NetArpTxPacket
                0x000000002005cfb4        0x4 net/built-in.o
 .bss.NetArpPacketBuf
                0x000000002005cfb8      0x640 net/built-in.o
 .bss.NetArpWaitPacketMAC
                0x000000002005d5f8        0x4 net/built-in.o
                0x000000002005d5f8                NetArpWaitPacketMAC
 .bss.BootpTry  0x000000002005d5fc        0x4 net/built-in.o
                0x000000002005d5fc                BootpTry
 .bss.BootpID   0x000000002005d600        0x4 net/built-in.o
                0x000000002005d600                BootpID
 .bss.env_changed_id.6815
                0x000000002005d604        0x4 net/built-in.o
 .bss.index.6762
                0x000000002005d608        0x4 net/built-in.o
 .bss.act.6814  0x000000002005d60c        0x4 net/built-in.o
 .bss.first_failed.6809
                0x000000002005d610        0x4 net/built-in.o
 .bss.eth_current
                0x000000002005d614        0x4 net/built-in.o
                0x000000002005d614                eth_current
 .bss.eth_devices
                0x000000002005d618        0x4 net/built-in.o
 .bss.NetOurEther
                0x000000002005d61c        0x6 net/built-in.o
                0x000000002005d61c                NetOurEther
 *fill*         0x000000002005d622        0x2 
 .bss.NetServerIP
                0x000000002005d624        0x4 net/built-in.o
                0x000000002005d624                NetServerIP
 .bss.NetRestarted
                0x000000002005d628        0x4 net/built-in.o
 .bss.net_state
                0x000000002005d62c        0x4 net/built-in.o
                0x000000002005d62c                net_state
 .bss.NetRxPackets
                0x000000002005d630       0x10 net/built-in.o
                0x000000002005d630                NetRxPackets
 .bss.NetBootFileSize
                0x000000002005d640        0x2 net/built-in.o
                0x000000002005d640                NetBootFileSize
 .bss.NetEtherNullAddr
                0x000000002005d642        0x6 net/built-in.o
                0x000000002005d642                NetEtherNullAddr
 .bss.NetRxPacket
                0x000000002005d648        0x4 net/built-in.o
                0x000000002005d648                NetRxPacket
 .bss.udp_packet_handler
                0x000000002005d64c        0x4 net/built-in.o
 .bss.NetDevExists
                0x000000002005d650        0x4 net/built-in.o
 .bss.timeStart
                0x000000002005d654        0x4 net/built-in.o
 .bss.timeHandler
                0x000000002005d658        0x4 net/built-in.o
 .bss.NetTryCount
                0x000000002005d65c        0x4 net/built-in.o
 .bss.NetOurDNSIP
                0x000000002005d660        0x4 net/built-in.o
                0x000000002005d660                NetOurDNSIP
 .bss.NetOurSubnetMask
                0x000000002005d664        0x4 net/built-in.o
                0x000000002005d664                NetOurSubnetMask
 .bss.NetTxPacket
                0x000000002005d668        0x4 net/built-in.o
                0x000000002005d668                NetTxPacket
 .bss.NetBootFileXferSize
                0x000000002005d66c        0x4 net/built-in.o
                0x000000002005d66c                NetBootFileXferSize
 .bss.env_changed_id.6524
                0x000000002005d670        0x4 net/built-in.o
 .bss.NetOurIP  0x000000002005d674        0x4 net/built-in.o
                0x000000002005d674                NetOurIP
 .bss.NetOurNISDomain
                0x000000002005d678       0x20 net/built-in.o
                0x000000002005d678                NetOurNISDomain
 .bss.NetIPID   0x000000002005d698        0x4 net/built-in.o
                0x000000002005d698                NetIPID
 .bss.NetOurGatewayIP
                0x000000002005d69c        0x4 net/built-in.o
                0x000000002005d69c                NetOurGatewayIP
 .bss.arp_packet_handler
                0x000000002005d6a0        0x4 net/built-in.o
 .bss.NetOurHostName
                0x000000002005d6a4       0x20 net/built-in.o
                0x000000002005d6a4                NetOurHostName
 .bss.NetRestartWrap
                0x000000002005d6c4        0x4 net/built-in.o
                0x000000002005d6c4                NetRestartWrap
 .bss.NetRxPacketLen
                0x000000002005d6c8        0x4 net/built-in.o
                0x000000002005d6c8                NetRxPacketLen
 .bss.BootFile  0x000000002005d6cc       0x80 net/built-in.o
                0x000000002005d6cc                BootFile
 .bss.timeDelta
                0x000000002005d74c        0x4 net/built-in.o
 .bss.NetServerEther
                0x000000002005d750        0x6 net/built-in.o
                0x000000002005d750                NetServerEther
 .bss.PktBuf    0x000000002005d756     0x1e40 net/built-in.o
 .bss.NetOurRootPath
                0x000000002005f596       0x40 net/built-in.o
                0x000000002005f596                NetOurRootPath
 *fill*         0x000000002005f5d6        0x2 
 .bss.NfsOurPort
                0x000000002005f5d8        0x4 net/built-in.o
 .bss.NfsServerIP
                0x000000002005f5dc        0x4 net/built-in.o
 .bss.nfs_filename
                0x000000002005f5e0        0x4 net/built-in.o
 .bss.nfs_len   0x000000002005f5e4        0x4 net/built-in.o
 .bss.NfsSrvMountPort
                0x000000002005f5e8        0x4 net/built-in.o
 .bss.dirfh     0x000000002005f5ec       0x20 net/built-in.o
 .bss.NfsSrvNfsPort
                0x000000002005f60c        0x4 net/built-in.o
 .bss.rpc_id    0x000000002005f610        0x4 net/built-in.o
 .bss.fs_mounted
                0x000000002005f614        0x4 net/built-in.o
 .bss.nfs_path_buff
                0x000000002005f618      0x800 net/built-in.o
 .bss.nfs_download_state
                0x000000002005fe18        0x4 net/built-in.o
 .bss.nfs_path  0x000000002005fe1c        0x4 net/built-in.o
 .bss.filefh    0x000000002005fe20       0x20 net/built-in.o
 .bss.NfsState  0x000000002005fe40        0x4 net/built-in.o
 .bss.default_filename
                0x000000002005fe44       0x4d net/built-in.o
 *fill*         0x000000002005fe91        0x3 
 .bss.NfsTimeoutCount
                0x000000002005fe94        0x4 net/built-in.o
 .bss.time_start
                0x000000002005fe98        0x4 net/built-in.o
 .bss.TftpTimeoutCount
                0x000000002005fe9c        0x4 net/built-in.o
 .bss.TftpBlockWrap
                0x000000002005fea0        0x4 net/built-in.o
 .bss.TftpBlock
                0x000000002005fea4        0x4 net/built-in.o
 .bss.TftpOurPort
                0x000000002005fea8        0x4 net/built-in.o
 .bss.TftpRemoteIP
                0x000000002005feac        0x4 net/built-in.o
 .bss.TftpState
                0x000000002005feb0        0x4 net/built-in.o
 .bss.TftpRemotePort
                0x000000002005feb4        0x4 net/built-in.o
 .bss.tftp_filename
                0x000000002005feb8       0x80 net/built-in.o
 .bss.TftpBlockWrapOffset
                0x000000002005ff38        0x4 net/built-in.o
 .bss.TftpLastBlock
                0x000000002005ff3c        0x4 net/built-in.o
                0x000000002005ff40                . = ALIGN (0x4)
                0x000000002005ff40                __bss_limit = .

.bss_end        0x000000002005ff40        0x0
 *(.__bss_end)
 .__bss_end     0x000000002005ff40        0x0 arch/arm/lib/built-in.o
                0x000000002005ff40                __bss_end

.dynsym         0x000000002002fa88       0x30
 *(.dynsym)
 .dynsym        0x000000002002fa88       0x30 arch/arm/cpu/armv7/start.o

.dynbss         0x000000002002fab8        0x0
 *(.dynbss)
 .dynbss        0x000000002002fab8        0x0 arch/arm/cpu/armv7/start.o

.dynstr         0x000000002002fab8        0x1
 *(.dynstr*)
 .dynstr        0x000000002002fab8        0x1 arch/arm/cpu/armv7/start.o

.dynamic        0x000000002002fabc       0x88
 *(.dynamic*)
 .dynamic       0x000000002002fabc       0x88 arch/arm/cpu/armv7/start.o
                0x000000002002fabc                _DYNAMIC

.plt            0x000000002002fb44        0x0
 *(.plt*)
 .plt           0x000000002002fb44        0x0 arch/arm/cpu/armv7/start.o

.interp         0x000000002002fb44       0x11
 *(.interp*)
 .interp        0x000000002002fb44       0x11 arch/arm/cpu/armv7/start.o

.gnu.hash
 *(.gnu.hash)

.gnu            0x000000002002fb58        0x0
 *(.gnu*)
 .gnu.version_d
                0x000000002002fb58        0x0 arch/arm/cpu/armv7/start.o
 .gnu.version   0x000000002002fb58        0x0 arch/arm/cpu/armv7/start.o
 .gnu.version_r
                0x000000002002fb58        0x0 arch/arm/cpu/armv7/start.o

.ARM.exidx
 *(.ARM.exidx*)

.gnu.linkonce.armexidx
 *(.gnu.linkonce.armexidx.*)
LOAD arch/arm/cpu/armv7/start.o
START GROUP
LOAD arch/arm/cpu/built-in.o
LOAD arch/arm/cpu/armv7/built-in.o
LOAD arch/arm/cpu/armv7/s5pc1xx/built-in.o
LOAD arch/arm/lib/built-in.o
LOAD board/samsung/common/built-in.o
LOAD board/samsung/smdkv210/built-in.o
LOAD common/built-in.o
LOAD disk/built-in.o
LOAD drivers/built-in.o
LOAD drivers/dma/built-in.o
LOAD drivers/gpio/built-in.o
LOAD drivers/i2c/built-in.o
LOAD drivers/input/built-in.o
LOAD drivers/mmc/built-in.o
LOAD drivers/mtd/built-in.o
LOAD drivers/mtd/onenand/built-in.o
LOAD drivers/mtd/spi/built-in.o
LOAD drivers/net/built-in.o
LOAD drivers/net/phy/built-in.o
LOAD drivers/pci/built-in.o
LOAD drivers/power/built-in.o
LOAD drivers/power/battery/built-in.o
LOAD drivers/power/fuel_gauge/built-in.o
LOAD drivers/power/mfd/built-in.o
LOAD drivers/power/pmic/built-in.o
LOAD drivers/serial/built-in.o
LOAD drivers/spi/built-in.o
LOAD drivers/usb/eth/built-in.o
LOAD drivers/usb/gadget/built-in.o
LOAD drivers/usb/host/built-in.o
LOAD drivers/usb/musb-new/built-in.o
LOAD drivers/usb/musb/built-in.o
LOAD drivers/usb/phy/built-in.o
LOAD drivers/usb/ulpi/built-in.o
LOAD fs/built-in.o
LOAD lib/built-in.o
LOAD lib/libfdt/built-in.o
LOAD net/built-in.o
LOAD test/built-in.o
LOAD test/dm/built-in.o
END GROUP
LOAD arch/arm/lib/eabi_compat.o
LOAD /usr/local/arm-cortex_a8-linux-gnueabi/lib/gcc/arm-cortex_a8-linux-gnueabi/4.9.4/libgcc.a
OUTPUT(u-boot elf32-littlearm)

.ARM.attributes
                0x0000000000000000       0x2b
 .ARM.attributes
                0x0000000000000000       0x1d arch/arm/cpu/armv7/start.o
 .ARM.attributes
                0x000000000000001d       0x2d arch/arm/cpu/armv7/built-in.o
 .ARM.attributes
                0x000000000000004a       0x29 arch/arm/cpu/armv7/s5pc1xx/built-in.o
 .ARM.attributes
                0x0000000000000073       0x29 arch/arm/lib/built-in.o
 .ARM.attributes
                0x000000000000009c       0x2b board/samsung/smdkv210/built-in.o
 .ARM.attributes
                0x00000000000000c7       0x2d common/built-in.o
 .ARM.attributes
                0x00000000000000f4       0x2d disk/built-in.o
 .ARM.attributes
                0x0000000000000121       0x2d drivers/gpio/built-in.o
 .ARM.attributes
                0x000000000000014e       0x2d drivers/mtd/built-in.o
 .ARM.attributes
                0x000000000000017b       0x2d drivers/mtd/onenand/built-in.o
 .ARM.attributes
                0x00000000000001a8       0x2d drivers/net/built-in.o
 .ARM.attributes
                0x00000000000001d5       0x2d drivers/serial/built-in.o
 .ARM.attributes
                0x0000000000000202       0x2d fs/built-in.o
 .ARM.attributes
                0x000000000000022f       0x2d lib/built-in.o
 .ARM.attributes
                0x000000000000025c       0x2d net/built-in.o
 .ARM.attributes
                0x0000000000000289       0x2d arch/arm/lib/eabi_compat.o
 .ARM.attributes
                0x00000000000002b6       0x27 /usr/local/arm-cortex_a8-linux-gnueabi/lib/gcc/arm-cortex_a8-linux-gnueabi/4.9.4/libgcc.a(_udivsi3.o)
 .ARM.attributes
                0x00000000000002dd       0x27 /usr/local/arm-cortex_a8-linux-gnueabi/lib/gcc/arm-cortex_a8-linux-gnueabi/4.9.4/libgcc.a(_divsi3.o)
 .ARM.attributes
                0x0000000000000304       0x27 /usr/local/arm-cortex_a8-linux-gnueabi/lib/gcc/arm-cortex_a8-linux-gnueabi/4.9.4/libgcc.a(_lshrdi3.o)
 .ARM.attributes
                0x000000000000032b       0x27 /usr/local/arm-cortex_a8-linux-gnueabi/lib/gcc/arm-cortex_a8-linux-gnueabi/4.9.4/libgcc.a(_ashrdi3.o)
 .ARM.attributes
                0x0000000000000352       0x27 /usr/local/arm-cortex_a8-linux-gnueabi/lib/gcc/arm-cortex_a8-linux-gnueabi/4.9.4/libgcc.a(_ashldi3.o)
 .ARM.attributes
                0x0000000000000379       0x27 /usr/local/arm-cortex_a8-linux-gnueabi/lib/gcc/arm-cortex_a8-linux-gnueabi/4.9.4/libgcc.a(_dvmd_lnx.o)

.comment        0x0000000000000000       0x2e
 .comment       0x0000000000000000       0x2e arch/arm/cpu/armv7/built-in.o
                                        0x149 (size before relaxing)
 .comment       0x000000000000002e       0x2f arch/arm/cpu/armv7/s5pc1xx/built-in.o
 .comment       0x000000000000002e      0x149 arch/arm/lib/built-in.o
 .comment       0x000000000000002e       0x8d board/samsung/smdkv210/built-in.o
 .comment       0x000000000000002e      0x814 common/built-in.o
 .comment       0x000000000000002e       0x5e disk/built-in.o
 .comment       0x000000000000002e       0x2f drivers/gpio/built-in.o
 .comment       0x000000000000002e       0x5e drivers/mtd/built-in.o
 .comment       0x000000000000002e       0xbc drivers/mtd/onenand/built-in.o
 .comment       0x000000000000002e       0x2f drivers/net/built-in.o
 .comment       0x000000000000002e       0x5e drivers/serial/built-in.o
 .comment       0x000000000000002e       0x8d fs/built-in.o
 .comment       0x000000000000002e      0x40a lib/built-in.o
 .comment       0x000000000000002e      0x11a net/built-in.o
 .comment       0x000000000000002e       0x2f arch/arm/lib/eabi_compat.o

.note.GNU-stack
                0x0000000000000000        0x0
 .note.GNU-stack
                0x0000000000000000        0x0 arch/arm/cpu/armv7/built-in.o
 .note.GNU-stack
                0x0000000000000000        0x0 arch/arm/cpu/armv7/s5pc1xx/built-in.o
 .note.GNU-stack
                0x0000000000000000        0x0 arch/arm/lib/built-in.o
 .note.GNU-stack
                0x0000000000000000        0x0 board/samsung/smdkv210/built-in.o
 .note.GNU-stack
                0x0000000000000000        0x0 common/built-in.o
 .note.GNU-stack
                0x0000000000000000        0x0 disk/built-in.o
 .note.GNU-stack
                0x0000000000000000        0x0 drivers/gpio/built-in.o
 .note.GNU-stack
                0x0000000000000000        0x0 drivers/mtd/built-in.o
 .note.GNU-stack
                0x0000000000000000        0x0 drivers/mtd/onenand/built-in.o
 .note.GNU-stack
                0x0000000000000000        0x0 drivers/net/built-in.o
 .note.GNU-stack
                0x0000000000000000        0x0 drivers/serial/built-in.o
 .note.GNU-stack
                0x0000000000000000        0x0 fs/built-in.o
 .note.GNU-stack
                0x0000000000000000        0x0 lib/built-in.o
 .note.GNU-stack
                0x0000000000000000        0x0 net/built-in.o
 .note.GNU-stack
                0x0000000000000000        0x0 arch/arm/lib/eabi_compat.o
 .note.GNU-stack
                0x0000000000000000        0x0 /usr/local/arm-cortex_a8-linux-gnueabi/lib/gcc/arm-cortex_a8-linux-gnueabi/4.9.4/libgcc.a(_udivsi3.o)
 .note.GNU-stack
                0x0000000000000000        0x0 /usr/local/arm-cortex_a8-linux-gnueabi/lib/gcc/arm-cortex_a8-linux-gnueabi/4.9.4/libgcc.a(_divsi3.o)
 .note.GNU-stack
                0x0000000000000000        0x0 /usr/local/arm-cortex_a8-linux-gnueabi/lib/gcc/arm-cortex_a8-linux-gnueabi/4.9.4/libgcc.a(_lshrdi3.o)
 .note.GNU-stack
                0x0000000000000000        0x0 /usr/local/arm-cortex_a8-linux-gnueabi/lib/gcc/arm-cortex_a8-linux-gnueabi/4.9.4/libgcc.a(_ashrdi3.o)
 .note.GNU-stack
                0x0000000000000000        0x0 /usr/local/arm-cortex_a8-linux-gnueabi/lib/gcc/arm-cortex_a8-linux-gnueabi/4.9.4/libgcc.a(_ashldi3.o)
 .note.GNU-stack
                0x0000000000000000        0x0 /usr/local/arm-cortex_a8-linux-gnueabi/lib/gcc/arm-cortex_a8-linux-gnueabi/4.9.4/libgcc.a(_dvmd_lnx.o)

.debug_line     0x0000000000000000    0x127f9
 .debug_line    0x0000000000000000       0xad arch/arm/cpu/armv7/start.o
 .debug_line    0x00000000000000ad      0xc6c arch/arm/cpu/armv7/built-in.o
 .debug_line    0x0000000000000d19      0x35b arch/arm/cpu/armv7/s5pc1xx/built-in.o
 .debug_line    0x0000000000001074      0xf7c arch/arm/lib/built-in.o
 .debug_line    0x0000000000001ff0      0x506 board/samsung/smdkv210/built-in.o
 .debug_line    0x00000000000024f6     0x7ad1 common/built-in.o
 .debug_line    0x0000000000009fc7      0x33e disk/built-in.o
 .debug_line    0x000000000000a305      0x268 drivers/gpio/built-in.o
 .debug_line    0x000000000000a56d      0x8e7 drivers/mtd/built-in.o
 .debug_line    0x000000000000ae54     0x14b2 drivers/mtd/onenand/built-in.o
 .debug_line    0x000000000000c306      0x44c drivers/net/built-in.o
 .debug_line    0x000000000000c752      0x7e5 drivers/serial/built-in.o
 .debug_line    0x000000000000cf37      0xc00 fs/built-in.o
 .debug_line    0x000000000000db37     0x2fd3 lib/built-in.o
 .debug_line    0x0000000000010b0a     0x185c net/built-in.o
 .debug_line    0x0000000000012366      0x140 arch/arm/lib/eabi_compat.o
 .debug_line    0x00000000000124a6       0x9b /usr/local/arm-cortex_a8-linux-gnueabi/lib/gcc/arm-cortex_a8-linux-gnueabi/4.9.4/libgcc.a(_udivsi3.o)
 .debug_line    0x0000000000012541       0xa7 /usr/local/arm-cortex_a8-linux-gnueabi/lib/gcc/arm-cortex_a8-linux-gnueabi/4.9.4/libgcc.a(_divsi3.o)
 .debug_line    0x00000000000125e8       0x85 /usr/local/arm-cortex_a8-linux-gnueabi/lib/gcc/arm-cortex_a8-linux-gnueabi/4.9.4/libgcc.a(_lshrdi3.o)
 .debug_line    0x000000000001266d       0x85 /usr/local/arm-cortex_a8-linux-gnueabi/lib/gcc/arm-cortex_a8-linux-gnueabi/4.9.4/libgcc.a(_ashrdi3.o)
 .debug_line    0x00000000000126f2       0x85 /usr/local/arm-cortex_a8-linux-gnueabi/lib/gcc/arm-cortex_a8-linux-gnueabi/4.9.4/libgcc.a(_ashldi3.o)
 .debug_line    0x0000000000012777       0x82 /usr/local/arm-cortex_a8-linux-gnueabi/lib/gcc/arm-cortex_a8-linux-gnueabi/4.9.4/libgcc.a(_dvmd_lnx.o)

.debug_info     0x0000000000000000    0x571df
 .debug_info    0x0000000000000000       0x6e arch/arm/cpu/armv7/start.o
 .debug_info    0x000000000000006e     0x2c2d arch/arm/cpu/armv7/built-in.o
 .debug_info    0x0000000000002c9b     0x106a arch/arm/cpu/armv7/s5pc1xx/built-in.o
 .debug_info    0x0000000000003d05     0x3f59 arch/arm/lib/built-in.o
 .debug_info    0x0000000000007c5e     0x1f1a board/samsung/smdkv210/built-in.o
 .debug_info    0x0000000000009b78    0x26ead common/built-in.o
 .debug_info    0x0000000000030a25      0xe44 disk/built-in.o
 .debug_info    0x0000000000031869      0xa0e drivers/gpio/built-in.o
 .debug_info    0x0000000000032277     0x2e96 drivers/mtd/built-in.o
 .debug_info    0x000000000003510d     0x8d2b drivers/mtd/onenand/built-in.o
 .debug_info    0x000000000003de38     0x137e drivers/net/built-in.o
 .debug_info    0x000000000003f1b6     0x1f34 drivers/serial/built-in.o
 .debug_info    0x00000000000410ea     0x3e80 fs/built-in.o
 .debug_info    0x0000000000044f6a     0x909c lib/built-in.o
 .debug_info    0x000000000004e006     0x8917 net/built-in.o
 .debug_info    0x000000000005691d      0x322 arch/arm/lib/eabi_compat.o
 .debug_info    0x0000000000056c3f       0xf0 /usr/local/arm-cortex_a8-linux-gnueabi/lib/gcc/arm-cortex_a8-linux-gnueabi/4.9.4/libgcc.a(_udivsi3.o)
 .debug_info    0x0000000000056d2f       0xf0 /usr/local/arm-cortex_a8-linux-gnueabi/lib/gcc/arm-cortex_a8-linux-gnueabi/4.9.4/libgcc.a(_divsi3.o)
 .debug_info    0x0000000000056e1f       0xf0 /usr/local/arm-cortex_a8-linux-gnueabi/lib/gcc/arm-cortex_a8-linux-gnueabi/4.9.4/libgcc.a(_lshrdi3.o)
 .debug_info    0x0000000000056f0f       0xf0 /usr/local/arm-cortex_a8-linux-gnueabi/lib/gcc/arm-cortex_a8-linux-gnueabi/4.9.4/libgcc.a(_ashrdi3.o)
 .debug_info    0x0000000000056fff       0xf0 /usr/local/arm-cortex_a8-linux-gnueabi/lib/gcc/arm-cortex_a8-linux-gnueabi/4.9.4/libgcc.a(_ashldi3.o)
 .debug_info    0x00000000000570ef       0xf0 /usr/local/arm-cortex_a8-linux-gnueabi/lib/gcc/arm-cortex_a8-linux-gnueabi/4.9.4/libgcc.a(_dvmd_lnx.o)

.debug_abbrev   0x0000000000000000    0x11410
 .debug_abbrev  0x0000000000000000       0x14 arch/arm/cpu/armv7/start.o
 .debug_abbrev  0x0000000000000014      0xe93 arch/arm/cpu/armv7/built-in.o
 .debug_abbrev  0x0000000000000ea7      0x3c0 arch/arm/cpu/armv7/s5pc1xx/built-in.o
 .debug_abbrev  0x0000000000001267     0x1049 arch/arm/lib/built-in.o
 .debug_abbrev  0x00000000000022b0      0x558 board/samsung/smdkv210/built-in.o
 .debug_abbrev  0x0000000000002808     0x7484 common/built-in.o
 .debug_abbrev  0x0000000000009c8c      0x362 disk/built-in.o
 .debug_abbrev  0x0000000000009fee      0x2d6 drivers/gpio/built-in.o
 .debug_abbrev  0x000000000000a2c4      0x7b5 drivers/mtd/built-in.o
 .debug_abbrev  0x000000000000aa79      0xf6c drivers/mtd/onenand/built-in.o
 .debug_abbrev  0x000000000000b9e5      0x410 drivers/net/built-in.o
 .debug_abbrev  0x000000000000bdf5      0x774 drivers/serial/built-in.o
 .debug_abbrev  0x000000000000c569      0xab5 fs/built-in.o
 .debug_abbrev  0x000000000000d01e     0x28f1 lib/built-in.o
 .debug_abbrev  0x000000000000f90f     0x1937 net/built-in.o
 .debug_abbrev  0x0000000000011246      0x152 arch/arm/lib/eabi_compat.o
 .debug_abbrev  0x0000000000011398       0x14 /usr/local/arm-cortex_a8-linux-gnueabi/lib/gcc/arm-cortex_a8-linux-gnueabi/4.9.4/libgcc.a(_udivsi3.o)
 .debug_abbrev  0x00000000000113ac       0x14 /usr/local/arm-cortex_a8-linux-gnueabi/lib/gcc/arm-cortex_a8-linux-gnueabi/4.9.4/libgcc.a(_divsi3.o)
 .debug_abbrev  0x00000000000113c0       0x14 /usr/local/arm-cortex_a8-linux-gnueabi/lib/gcc/arm-cortex_a8-linux-gnueabi/4.9.4/libgcc.a(_lshrdi3.o)
 .debug_abbrev  0x00000000000113d4       0x14 /usr/local/arm-cortex_a8-linux-gnueabi/lib/gcc/arm-cortex_a8-linux-gnueabi/4.9.4/libgcc.a(_ashrdi3.o)
 .debug_abbrev  0x00000000000113e8       0x14 /usr/local/arm-cortex_a8-linux-gnueabi/lib/gcc/arm-cortex_a8-linux-gnueabi/4.9.4/libgcc.a(_ashldi3.o)
 .debug_abbrev  0x00000000000113fc       0x14 /usr/local/arm-cortex_a8-linux-gnueabi/lib/gcc/arm-cortex_a8-linux-gnueabi/4.9.4/libgcc.a(_dvmd_lnx.o)

.debug_aranges  0x0000000000000000     0x24a0
 .debug_aranges
                0x0000000000000000       0x20 arch/arm/cpu/armv7/start.o
 .debug_aranges
                0x0000000000000020      0x1c8 arch/arm/cpu/armv7/built-in.o
 .debug_aranges
                0x00000000000001e8       0x90 arch/arm/cpu/armv7/s5pc1xx/built-in.o
 .debug_aranges
                0x0000000000000278      0x290 arch/arm/lib/built-in.o
 .debug_aranges
                0x0000000000000508       0xc0 board/samsung/smdkv210/built-in.o
 .debug_aranges
                0x00000000000005c8      0xd10 common/built-in.o
 .debug_aranges
                0x00000000000012d8       0x50 disk/built-in.o
 .debug_aranges
                0x0000000000001328       0x98 drivers/gpio/built-in.o
 .debug_aranges
                0x00000000000013c0      0x168 drivers/mtd/built-in.o
 .debug_aranges
                0x0000000000001528      0x240 drivers/mtd/onenand/built-in.o
 .debug_aranges
                0x0000000000001768       0x70 drivers/net/built-in.o
 .debug_aranges
                0x00000000000017d8      0x1a8 drivers/serial/built-in.o
 .debug_aranges
                0x0000000000001980      0x1a0 fs/built-in.o
 .debug_aranges
                0x0000000000001b20      0x588 lib/built-in.o
 .debug_aranges
                0x00000000000020a8      0x308 net/built-in.o
 .debug_aranges
                0x00000000000023b0       0x30 arch/arm/lib/eabi_compat.o
 .debug_aranges
                0x00000000000023e0       0x20 /usr/local/arm-cortex_a8-linux-gnueabi/lib/gcc/arm-cortex_a8-linux-gnueabi/4.9.4/libgcc.a(_udivsi3.o)
 .debug_aranges
                0x0000000000002400       0x20 /usr/local/arm-cortex_a8-linux-gnueabi/lib/gcc/arm-cortex_a8-linux-gnueabi/4.9.4/libgcc.a(_divsi3.o)
 .debug_aranges
                0x0000000000002420       0x20 /usr/local/arm-cortex_a8-linux-gnueabi/lib/gcc/arm-cortex_a8-linux-gnueabi/4.9.4/libgcc.a(_lshrdi3.o)
 .debug_aranges
                0x0000000000002440       0x20 /usr/local/arm-cortex_a8-linux-gnueabi/lib/gcc/arm-cortex_a8-linux-gnueabi/4.9.4/libgcc.a(_ashrdi3.o)
 .debug_aranges
                0x0000000000002460       0x20 /usr/local/arm-cortex_a8-linux-gnueabi/lib/gcc/arm-cortex_a8-linux-gnueabi/4.9.4/libgcc.a(_ashldi3.o)
 .debug_aranges
                0x0000000000002480       0x20 /usr/local/arm-cortex_a8-linux-gnueabi/lib/gcc/arm-cortex_a8-linux-gnueabi/4.9.4/libgcc.a(_dvmd_lnx.o)

.debug_frame    0x0000000000000000     0x5d0c
 .debug_frame   0x0000000000000000      0x384 arch/arm/cpu/armv7/built-in.o
 .debug_frame   0x0000000000000384       0xa8 arch/arm/cpu/armv7/s5pc1xx/built-in.o
 .debug_frame   0x000000000000042c      0x4c8 arch/arm/lib/built-in.o
 .debug_frame   0x00000000000008f4      0x108 board/samsung/smdkv210/built-in.o
 .debug_frame   0x00000000000009fc     0x2390 common/built-in.o
 .debug_frame   0x0000000000002d8c       0x78 disk/built-in.o
 .debug_frame   0x0000000000002e04      0x14c drivers/gpio/built-in.o
 .debug_frame   0x0000000000002f50      0x4c0 drivers/mtd/built-in.o
 .debug_frame   0x0000000000003410      0x78c drivers/mtd/onenand/built-in.o
 .debug_frame   0x0000000000003b9c      0x124 drivers/net/built-in.o
 .debug_frame   0x0000000000003cc0      0x3f4 drivers/serial/built-in.o
 .debug_frame   0x00000000000040b4      0x4e4 fs/built-in.o
 .debug_frame   0x0000000000004598      0xd5c lib/built-in.o
 .debug_frame   0x00000000000052f4      0x990 net/built-in.o
 .debug_frame   0x0000000000005c84       0x48 arch/arm/lib/eabi_compat.o
 .debug_frame   0x0000000000005ccc       0x20 /usr/local/arm-cortex_a8-linux-gnueabi/lib/gcc/arm-cortex_a8-linux-gnueabi/4.9.4/libgcc.a(_udivsi3.o)
 .debug_frame   0x0000000000005cec       0x20 /usr/local/arm-cortex_a8-linux-gnueabi/lib/gcc/arm-cortex_a8-linux-gnueabi/4.9.4/libgcc.a(_divsi3.o)

.debug_str      0x0000000000000000     0x9376
 .debug_str     0x0000000000000000      0xa68 arch/arm/cpu/armv7/built-in.o
                                       0x2000 (size before relaxing)
 .debug_str     0x0000000000000a68      0x28e arch/arm/cpu/armv7/s5pc1xx/built-in.o
                                        0x629 (size before relaxing)
 .debug_str     0x0000000000000cf6     0x1380 arch/arm/lib/built-in.o
                                       0x3890 (size before relaxing)
 .debug_str     0x0000000000002076      0x61c board/samsung/smdkv210/built-in.o
                                       0x12d2 (size before relaxing)
 .debug_str     0x0000000000002692     0x38a7 common/built-in.o
                                      0x13f24 (size before relaxing)
 .debug_str     0x0000000000005f39       0x76 disk/built-in.o
                                        0x955 (size before relaxing)
 .debug_str     0x0000000000005faf       0xee drivers/gpio/built-in.o
                                        0x4de (size before relaxing)
 .debug_str     0x000000000000609d      0x335 drivers/mtd/built-in.o
                                       0x12a6 (size before relaxing)
 .debug_str     0x00000000000063d2      0x934 drivers/mtd/onenand/built-in.o
                                       0x3086 (size before relaxing)
 .debug_str     0x0000000000006d06      0x1b9 drivers/net/built-in.o
                                        0x55c (size before relaxing)
 .debug_str     0x0000000000006ebf      0x443 drivers/serial/built-in.o
                                        0xf15 (size before relaxing)
 .debug_str     0x0000000000007302      0x6ea fs/built-in.o
                                       0x169c (size before relaxing)
 .debug_str     0x00000000000079ec      0xa09 lib/built-in.o
                                       0x5610 (size before relaxing)
 .debug_str     0x00000000000083f5      0xf2b net/built-in.o
                                       0x4d77 (size before relaxing)
 .debug_str     0x0000000000009320       0x56 arch/arm/lib/eabi_compat.o
                                        0x376 (size before relaxing)

.debug_loc      0x0000000000000000    0x2bbe9
 .debug_loc     0x0000000000000000      0xc6d arch/arm/cpu/armv7/built-in.o
 .debug_loc     0x0000000000000c6d      0x552 arch/arm/cpu/armv7/s5pc1xx/built-in.o
 .debug_loc     0x00000000000011bf      0x9a5 arch/arm/lib/built-in.o
 .debug_loc     0x0000000000001b64      0x240 board/samsung/smdkv210/built-in.o
 .debug_loc     0x0000000000001da4    0x12d01 common/built-in.o
 .debug_loc     0x0000000000014aa5      0x348 disk/built-in.o
 .debug_loc     0x0000000000014ded      0x53c drivers/gpio/built-in.o
 .debug_loc     0x0000000000015329     0x17c0 drivers/mtd/built-in.o
 .debug_loc     0x0000000000016ae9     0x512a drivers/mtd/onenand/built-in.o
 .debug_loc     0x000000000001bc13      0xcab drivers/net/built-in.o
 .debug_loc     0x000000000001c8be      0x8b6 drivers/serial/built-in.o
 .debug_loc     0x000000000001d174     0x2c76 fs/built-in.o
 .debug_loc     0x000000000001fdea     0x8715 lib/built-in.o
 .debug_loc     0x00000000000284ff     0x36be net/built-in.o
 .debug_loc     0x000000000002bbbd       0x2c arch/arm/lib/eabi_compat.o

.debug_ranges   0x0000000000000000     0x3d20
 .debug_ranges  0x0000000000000000      0x2f0 arch/arm/cpu/armv7/built-in.o
 .debug_ranges  0x00000000000002f0       0xd0 arch/arm/cpu/armv7/s5pc1xx/built-in.o
 .debug_ranges  0x00000000000003c0      0x268 arch/arm/lib/built-in.o
 .debug_ranges  0x0000000000000628       0x90 board/samsung/smdkv210/built-in.o
 .debug_ranges  0x00000000000006b8     0x1678 common/built-in.o
 .debug_ranges  0x0000000000001d30       0x28 disk/built-in.o
 .debug_ranges  0x0000000000001d58       0xd0 drivers/gpio/built-in.o
 .debug_ranges  0x0000000000001e28      0x2b0 drivers/mtd/built-in.o
 .debug_ranges  0x00000000000020d8      0x608 drivers/mtd/onenand/built-in.o
 .debug_ranges  0x00000000000026e0      0x208 drivers/net/built-in.o
 .debug_ranges  0x00000000000028e8      0x368 drivers/serial/built-in.o
 .debug_ranges  0x0000000000002c50      0x288 fs/built-in.o
 .debug_ranges  0x0000000000002ed8      0x898 lib/built-in.o
 .debug_ranges  0x0000000000003770      0x590 net/built-in.o
 .debug_ranges  0x0000000000003d00       0x20 arch/arm/lib/eabi_compat.o
